(lp0
(dp1
S'livingroom - window'
p2
F0.75
sS'livingroom'
p3
F1.0
sS'livingroom - sofa'
p4
F0.25
sS'livingroom - dining table'
p5
F0.0
sS'time'
p6
F1478596497.301633
sS'livingroom - study'
p7
F0.0
sS'kitchen'
p8
F0.0
sa(dp9
S'livingroom - window'
p10
F0.75
sS'livingroom'
p11
F1.0
sS'livingroom - sofa'
p12
F0.25
sS'livingroom - dining table'
p13
F0.0
sg6
F1478596507.1080172
sS'livingroom - study'
p14
F0.0
sS'kitchen'
p15
F0.0
sa(dp16
S'livingroom - window'
p17
F0.75
sS'livingroom'
p18
F1.0
sS'livingroom - sofa'
p19
F0.25
sS'livingroom - dining table'
p20
F0.0
sg6
F1478596510.929078
sS'livingroom - study'
p21
F0.0
sS'kitchen'
p22
F0.0
sa(dp23
S'livingroom - window'
p24
F0.75
sS'livingroom'
p25
F1.0
sS'livingroom - sofa'
p26
F0.25
sS'livingroom - dining table'
p27
F0.0
sg6
F1478596510.9391596
sS'livingroom - study'
p28
F0.0
sS'kitchen'
p29
F0.0
sa(dp30
S'livingroom - window'
p31
F0.75
sS'livingroom'
p32
F1.0
sS'livingroom - sofa'
p33
F0.25
sS'livingroom - dining table'
p34
F0.0
sg6
F1478596511.9351783
sS'livingroom - study'
p35
F0.0
sS'kitchen'
p36
F0.0
sa(dp37
S'livingroom - window'
p38
F0.75
sS'livingroom'
p39
F1.0
sS'livingroom - sofa'
p40
F0.25
sS'livingroom - dining table'
p41
F0.0
sg6
F1478596512.9312358
sS'livingroom - study'
p42
F0.0
sS'kitchen'
p43
F0.0
sa(dp44
S'livingroom - window'
p45
F0.75
sS'livingroom'
p46
F1.0
sS'livingroom - sofa'
p47
F0.25
sS'livingroom - dining table'
p48
F0.0
sg6
F1478596513.9369164
sS'livingroom - study'
p49
F0.0
sS'kitchen'
p50
F0.0
sa(dp51
S'livingroom - window'
p52
F0.75
sS'livingroom'
p53
F1.0
sS'livingroom - sofa'
p54
F0.25
sS'livingroom - dining table'
p55
F0.0
sg6
F1478596514.9326131
sS'livingroom - study'
p56
F0.0
sS'kitchen'
p57
F0.0
sa(dp58
S'livingroom - window'
p59
F0.75
sS'livingroom'
p60
F1.0
sS'livingroom - sofa'
p61
F0.25
sS'livingroom - dining table'
p62
F0.0
sg6
F1478596515.938426
sS'livingroom - study'
p63
F0.0
sS'kitchen'
p64
F0.0
sa(dp65
S'livingroom - window'
p66
F0.75
sS'livingroom'
p67
F1.0
sS'livingroom - sofa'
p68
F0.25
sS'livingroom - dining table'
p69
F0.0
sg6
F1478596516.9377923
sS'livingroom - study'
p70
F0.0
sS'kitchen'
p71
F0.0
sa(dp72
S'livingroom - window'
p73
F0.75
sS'livingroom'
p74
F1.0
sS'livingroom - sofa'
p75
F0.25
sS'livingroom - dining table'
p76
F0.0
sg6
F1478596517.933831
sS'livingroom - study'
p77
F0.0
sS'kitchen'
p78
F0.0
sa(dp79
S'livingroom - window'
p80
F0.75
sS'livingroom'
p81
F1.0
sS'livingroom - sofa'
p82
F0.25
sS'livingroom - dining table'
p83
F0.0
sg6
F1478596518.929546
sS'livingroom - study'
p84
F0.0
sS'kitchen'
p85
F0.0
sa(dp86
S'livingroom - window'
p87
F0.75
sS'livingroom'
p88
F1.0
sS'livingroom - sofa'
p89
F0.25
sS'livingroom - dining table'
p90
F0.0
sg6
F1478596519.9350932
sS'livingroom - study'
p91
F0.0
sS'kitchen'
p92
F0.0
sa(dp93
S'livingroom - window'
p94
F0.75
sS'livingroom'
p95
F1.0
sS'livingroom - sofa'
p96
F0.25
sS'livingroom - dining table'
p97
F0.0
sg6
F1478596520.930571
sS'livingroom - study'
p98
F0.0
sS'kitchen'
p99
F0.0
sa(dp100
S'livingroom - window'
p101
F0.75
sS'livingroom'
p102
F1.0
sS'livingroom - sofa'
p103
F0.25
sS'livingroom - dining table'
p104
F0.0
sg6
F1478596521.9369771
sS'livingroom - study'
p105
F0.0
sS'kitchen'
p106
F0.0
sa(dp107
S'livingroom - window'
p108
F0.75
sS'livingroom'
p109
F1.0
sS'livingroom - sofa'
p110
F0.25
sS'livingroom - dining table'
p111
F0.0
sg6
F1478596522.932705
sS'livingroom - study'
p112
F0.0
sS'kitchen'
p113
F0.0
sa(dp114
S'livingroom - window'
p115
F0.75
sS'livingroom'
p116
F1.0
sS'livingroom - sofa'
p117
F0.25
sS'livingroom - dining table'
p118
F0.0
sg6
F1478596523.939026
sS'livingroom - study'
p119
F0.0
sS'kitchen'
p120
F0.0
sa(dp121
S'livingroom - window'
p122
F0.75
sS'livingroom'
p123
F1.0
sS'livingroom - sofa'
p124
F0.25
sS'livingroom - dining table'
p125
F0.0
sg6
F1478596524.93507
sS'livingroom - study'
p126
F0.0
sS'kitchen'
p127
F0.0
sa(dp128
S'livingroom - window'
p129
F0.75
sS'livingroom'
p130
F1.0
sS'livingroom - sofa'
p131
F0.25
sS'livingroom - dining table'
p132
F0.0
sg6
F1478596525.9312308
sS'livingroom - study'
p133
F0.0
sS'kitchen'
p134
F0.0
sa(dp135
S'livingroom - window'
p136
F0.75
sS'livingroom'
p137
F1.0
sS'livingroom - sofa'
p138
F0.25
sS'livingroom - dining table'
p139
F0.0
sg6
F1478596526.9375074
sS'livingroom - study'
p140
F0.0
sS'kitchen'
p141
F0.0
sa(dp142
S'livingroom - window'
p143
F0.75
sS'livingroom'
p144
F1.0
sS'livingroom - sofa'
p145
F0.25
sS'livingroom - dining table'
p146
F0.0
sg6
F1478596527.9339006
sS'livingroom - study'
p147
F0.0
sS'kitchen'
p148
F0.0
sa(dp149
S'livingroom - window'
p150
F0.75
sS'livingroom'
p151
F1.0
sS'livingroom - sofa'
p152
F0.25
sS'livingroom - dining table'
p153
F0.0
sg6
F1478596528.9301937
sS'livingroom - study'
p154
F0.0
sS'kitchen'
p155
F0.0
sa(dp156
S'livingroom - window'
p157
F0.75
sS'livingroom'
p158
F1.0
sS'livingroom - sofa'
p159
F0.25
sS'livingroom - dining table'
p160
F0.0
sg6
F1478596529.93689
sS'livingroom - study'
p161
F0.0
sS'kitchen'
p162
F0.0
sa(dp163
S'livingroom - window'
p164
F0.75
sS'livingroom'
p165
F1.0
sS'livingroom - sofa'
p166
F0.25
sS'livingroom - dining table'
p167
F0.0
sg6
F1478596530.933116
sS'livingroom - study'
p168
F0.0
sS'kitchen'
p169
F0.0
sa(dp170
S'livingroom - window'
p171
F0.75
sS'livingroom'
p172
F1.0
sS'livingroom - sofa'
p173
F0.25
sS'livingroom - dining table'
p174
F0.0
sg6
F1478596531.9293098
sS'livingroom - study'
p175
F0.0
sS'kitchen'
p176
F0.0
sa(dp177
S'livingroom - window'
p178
F0.75
sS'livingroom'
p179
F1.0
sS'livingroom - sofa'
p180
F0.25
sS'livingroom - dining table'
p181
F0.0
sg6
F1478596532.935636
sS'livingroom - study'
p182
F0.0
sS'kitchen'
p183
F0.0
sa(dp184
S'livingroom - window'
p185
F0.75
sS'livingroom'
p186
F1.0
sS'livingroom - sofa'
p187
F0.25
sS'livingroom - dining table'
p188
F0.0
sg6
F1478596533.9318564
sS'livingroom - study'
p189
F0.0
sS'kitchen'
p190
F0.0
sa(dp191
S'livingroom - window'
p192
F0.75
sS'livingroom'
p193
F1.0
sS'livingroom - sofa'
p194
F0.25
sS'livingroom - dining table'
p195
F0.0
sg6
F1478596534.9377627
sS'livingroom - study'
p196
F0.0
sS'kitchen'
p197
F0.0
sa(dp198
S'livingroom - window'
p199
F0.75
sS'livingroom'
p200
F1.0
sS'livingroom - sofa'
p201
F0.25
sS'livingroom - dining table'
p202
F0.0
sg6
F1478596535.9339404
sS'livingroom - study'
p203
F0.0
sS'kitchen'
p204
F0.0
sa(dp205
S'livingroom - window'
p206
F0.75
sS'livingroom'
p207
F1.0
sS'livingroom - sofa'
p208
F0.25
sS'livingroom - dining table'
p209
F0.0
sg6
F1478596536.9300625
sS'livingroom - study'
p210
F0.0
sS'kitchen'
p211
F0.0
sa(dp212
S'livingroom - window'
p213
F0.75
sS'livingroom'
p214
F1.0
sS'livingroom - sofa'
p215
F0.25
sS'livingroom - dining table'
p216
F0.0
sg6
F1478596537.9365969
sS'livingroom - study'
p217
F0.0
sS'kitchen'
p218
F0.0
sa(dp219
S'livingroom - window'
p220
F0.75
sS'livingroom'
p221
F1.0
sS'livingroom - sofa'
p222
F0.25
sS'livingroom - dining table'
p223
F0.0
sg6
F1478596538.9329793
sS'livingroom - study'
p224
F0.0
sS'kitchen'
p225
F0.0
sa(dp226
S'livingroom - window'
p227
F0.75
sS'livingroom'
p228
F1.0
sS'livingroom - sofa'
p229
F0.25
sS'livingroom - dining table'
p230
F0.0
sg6
F1478596539.9295084
sS'livingroom - study'
p231
F0.0
sS'kitchen'
p232
F0.0
sa(dp233
S'livingroom - window'
p234
F0.75
sS'livingroom'
p235
F1.0
sS'livingroom - sofa'
p236
F0.25
sS'livingroom - dining table'
p237
F0.0
sg6
F1478596540.935859
sS'livingroom - study'
p238
F0.0
sS'kitchen'
p239
F0.0
sa(dp240
S'livingroom - window'
p241
F0.75
sS'livingroom'
p242
F1.0
sS'livingroom - sofa'
p243
F0.25
sS'livingroom - dining table'
p244
F0.0
sg6
F1478596541.931924
sS'livingroom - study'
p245
F0.0
sS'kitchen'
p246
F0.0
sa(dp247
S'livingroom - window'
p248
F0.75
sS'livingroom'
p249
F1.0
sS'livingroom - sofa'
p250
F0.25
sS'livingroom - dining table'
p251
F0.0
sg6
F1478596542.9383247
sS'livingroom - study'
p252
F0.0
sS'kitchen'
p253
F0.0
sa(dp254
S'livingroom - window'
p255
F0.75
sS'livingroom'
p256
F1.0
sS'livingroom - sofa'
p257
F0.25
sS'livingroom - dining table'
p258
F0.0
sg6
F1478596543.9345863
sS'livingroom - study'
p259
F0.0
sS'kitchen'
p260
F0.0
sa(dp261
S'livingroom - window'
p262
F0.75
sS'livingroom'
p263
F1.0
sS'livingroom - sofa'
p264
F0.25
sS'livingroom - dining table'
p265
F0.0
sg6
F1478596544.9305363
sS'livingroom - study'
p266
F0.0
sS'kitchen'
p267
F0.0
sa(dp268
S'livingroom - window'
p269
F0.75
sS'livingroom'
p270
F1.0
sS'livingroom - sofa'
p271
F0.25
sS'livingroom - dining table'
p272
F0.0
sg6
F1478596545.937453
sS'livingroom - study'
p273
F0.0
sS'kitchen'
p274
F0.0
sa(dp275
S'livingroom - window'
p276
F0.75
sS'livingroom'
p277
F1.0
sS'livingroom - sofa'
p278
F0.25
sS'livingroom - dining table'
p279
F0.0
sg6
F1478596546.933526
sS'livingroom - study'
p280
F0.0
sS'kitchen'
p281
F0.0
sa(dp282
S'livingroom - window'
p283
F0.75
sS'livingroom'
p284
F1.0
sS'livingroom - sofa'
p285
F0.25
sS'livingroom - dining table'
p286
F0.0
sg6
F1478596547.929652
sS'livingroom - study'
p287
F0.0
sS'kitchen'
p288
F0.0
sa(dp289
S'livingroom - window'
p290
F0.75
sS'livingroom'
p291
F1.0
sS'livingroom - sofa'
p292
F0.25
sS'livingroom - dining table'
p293
F0.0
sg6
F1478596548.9361596
sS'livingroom - study'
p294
F0.0
sS'kitchen'
p295
F0.0
sa(dp296
S'livingroom - window'
p297
F0.75
sS'livingroom'
p298
F1.0
sS'livingroom - sofa'
p299
F0.25
sS'livingroom - dining table'
p300
F0.0
sg6
F1478596549.932306
sS'livingroom - study'
p301
F0.0
sS'kitchen'
p302
F0.0
sa(dp303
S'livingroom - window'
p304
F0.588045
sS'livingroom'
p305
F0.996895
sS'livingroom - sofa'
p306
F0.207518
sS'livingroom - dining table'
p307
F0.0
sg6
F1478596552.6874483
sS'livingroom - study'
p308
F0.201332
sS'kitchen'
p309
F0.00310483
sa(dp310
S'livingroom - window'
p311
F0.486932
sS'livingroom'
p312
F0.979561
sS'livingroom - sofa'
p313
F0.204704
sS'livingroom - dining table'
p314
F0.0
sg6
F1478596554.9802573
sS'livingroom - study'
p315
F0.287924
sS'kitchen'
p316
F0.0204391
sa(dp317
S'livingroom - window'
p318
F0.486932
sS'livingroom'
p319
F0.979561
sS'livingroom - sofa'
p320
F0.204704
sS'livingroom - dining table'
p321
F0.0
sg6
F1478596555.0104303
sS'livingroom - study'
p322
F0.287924
sS'kitchen'
p323
F0.0204391
sa(dp324
S'livingroom - window'
p325
F0.486932
sS'livingroom'
p326
F0.979561
sS'livingroom - sofa'
p327
F0.204704
sS'livingroom - dining table'
p328
F0.0
sg6
F1478596555.9860249
sS'livingroom - study'
p329
F0.287924
sS'kitchen'
p330
F0.0204391
sa(dp331
S'livingroom - window'
p332
F0.486932
sS'livingroom'
p333
F0.979561
sS'livingroom - sofa'
p334
F0.204704
sS'livingroom - dining table'
p335
F0.0
sg6
F1478596556.9817882
sS'livingroom - study'
p336
F0.287924
sS'kitchen'
p337
F0.0204391
sa(dp338
S'livingroom - window'
p339
F0.486932
sS'livingroom'
p340
F0.979561
sS'livingroom - sofa'
p341
F0.204704
sS'livingroom - dining table'
p342
F0.0
sg6
F1478596557.987942
sS'livingroom - study'
p343
F0.287924
sS'kitchen'
p344
F0.0204391
sa(dp345
S'livingroom - window'
p346
F0.486932
sS'livingroom'
p347
F0.979561
sS'livingroom - sofa'
p348
F0.204704
sS'livingroom - dining table'
p349
F0.0
sg6
F1478596558.984125
sS'livingroom - study'
p350
F0.287924
sS'kitchen'
p351
F0.0204391
sa(dp352
S'livingroom - window'
p353
F0.486932
sS'livingroom'
p354
F0.979561
sS'livingroom - sofa'
p355
F0.204704
sS'livingroom - dining table'
p356
F0.0
sg6
F1478596559.9901657
sS'livingroom - study'
p357
F0.287924
sS'kitchen'
p358
F0.0204391
sa(dp359
S'livingroom - window'
p360
F0.486932
sS'livingroom'
p361
F0.979561
sS'livingroom - sofa'
p362
F0.204704
sS'livingroom - dining table'
p363
F0.0
sg6
F1478596560.9864166
sS'livingroom - study'
p364
F0.287924
sS'kitchen'
p365
F0.0204391
sa(dp366
S'livingroom - window'
p367
F0.486932
sS'livingroom'
p368
F0.979561
sS'livingroom - sofa'
p369
F0.204704
sS'livingroom - dining table'
p370
F0.0
sg6
F1478596561.9825385
sS'livingroom - study'
p371
F0.287924
sS'kitchen'
p372
F0.0204391
sa(dp373
S'livingroom - window'
p374
F0.486932
sS'livingroom'
p375
F0.979561
sS'livingroom - sofa'
p376
F0.204704
sS'livingroom - dining table'
p377
F0.0
sg6
F1478596562.988688
sS'livingroom - study'
p378
F0.287924
sS'kitchen'
p379
F0.0204391
sa(dp380
S'livingroom - window'
p381
F0.486932
sS'livingroom'
p382
F0.979561
sS'livingroom - sofa'
p383
F0.204704
sS'livingroom - dining table'
p384
F0.0
sg6
F1478596563.9846795
sS'livingroom - study'
p385
F0.287924
sS'kitchen'
p386
F0.0204391
sa(dp387
S'livingroom - window'
p388
F0.486932
sS'livingroom'
p389
F0.979561
sS'livingroom - sofa'
p390
F0.204704
sS'livingroom - dining table'
p391
F0.0
sg6
F1478596564.9810426
sS'livingroom - study'
p392
F0.287924
sS'kitchen'
p393
F0.0204391
sa(dp394
S'livingroom - window'
p395
F0.486932
sS'livingroom'
p396
F0.979561
sS'livingroom - sofa'
p397
F0.204704
sS'livingroom - dining table'
p398
F0.0
sg6
F1478596565.9874184
sS'livingroom - study'
p399
F0.287924
sS'kitchen'
p400
F0.0204391
sa(dp401
S'livingroom - window'
p402
F0.486932
sS'livingroom'
p403
F0.979561
sS'livingroom - sofa'
p404
F0.204704
sS'livingroom - dining table'
p405
F0.0
sg6
F1478596566.9836369
sS'livingroom - study'
p406
F0.287924
sS'kitchen'
p407
F0.0204391
sa(dp408
S'livingroom - window'
p409
F0.486932
sS'livingroom'
p410
F0.979561
sS'livingroom - sofa'
p411
F0.204704
sS'livingroom - dining table'
p412
F0.0
sg6
F1478596567.9896786
sS'livingroom - study'
p413
F0.287924
sS'kitchen'
p414
F0.0204391
sa(dp415
S'livingroom - window'
p416
F0.486932
sS'livingroom'
p417
F0.979561
sS'livingroom - sofa'
p418
F0.204704
sS'livingroom - dining table'
p419
F0.0
sg6
F1478596568.98561
sS'livingroom - study'
p420
F0.287924
sS'kitchen'
p421
F0.0204391
sa(dp422
S'livingroom - window'
p423
F0.486932
sS'livingroom'
p424
F0.979561
sS'livingroom - sofa'
p425
F0.204704
sS'livingroom - dining table'
p426
F0.0
sg6
F1478596569.9814022
sS'livingroom - study'
p427
F0.287924
sS'kitchen'
p428
F0.0204391
sa(dp429
S'livingroom - window'
p430
F0.486932
sS'livingroom'
p431
F0.979561
sS'livingroom - sofa'
p432
F0.204704
sS'livingroom - dining table'
p433
F0.0
sg6
F1478596570.987619
sS'livingroom - study'
p434
F0.287924
sS'kitchen'
p435
F0.0204391
sa(dp436
S'livingroom - window'
p437
F0.486932
sS'livingroom'
p438
F0.979561
sS'livingroom - sofa'
p439
F0.204704
sS'livingroom - dining table'
p440
F0.0
sg6
F1478596571.9841394
sS'livingroom - study'
p441
F0.287924
sS'kitchen'
p442
F0.0204391
sa(dp443
S'livingroom - window'
p444
F0.486932
sS'livingroom'
p445
F0.979561
sS'livingroom - sofa'
p446
F0.204704
sS'livingroom - dining table'
p447
F0.0
sg6
F1478596572.9717517
sS'livingroom - study'
p448
F0.287924
sS'kitchen'
p449
F0.0204391
sa(dp450
S'livingroom - window'
p451
F0.486932
sS'livingroom'
p452
F0.979561
sS'livingroom - sofa'
p453
F0.204704
sS'livingroom - dining table'
p454
F0.0
sg6
F1478596573.9891326
sS'livingroom - study'
p455
F0.287924
sS'kitchen'
p456
F0.0204391
sa(dp457
S'livingroom - window'
p458
F0.486932
sS'livingroom'
p459
F0.979561
sS'livingroom - sofa'
p460
F0.204704
sS'livingroom - dining table'
p461
F0.0
sg6
F1478596574.985352
sS'livingroom - study'
p462
F0.287924
sS'kitchen'
p463
F0.0204391
sa(dp464
S'livingroom - window'
p465
F0.486932
sS'livingroom'
p466
F0.979561
sS'livingroom - sofa'
p467
F0.204704
sS'livingroom - dining table'
p468
F0.0
sg6
F1478596575.980616
sS'livingroom - study'
p469
F0.287924
sS'kitchen'
p470
F0.0204391
sa(dp471
S'livingroom - window'
p472
F0.486932
sS'livingroom'
p473
F0.979561
sS'livingroom - sofa'
p474
F0.204704
sS'livingroom - dining table'
p475
F0.0
sg6
F1478596576.9861133
sS'livingroom - study'
p476
F0.287924
sS'kitchen'
p477
F0.0204391
sa(dp478
S'livingroom - window'
p479
F0.486932
sS'livingroom'
p480
F0.979561
sS'livingroom - sofa'
p481
F0.204704
sS'livingroom - dining table'
p482
F0.0
sg6
F1478596577.9816055
sS'livingroom - study'
p483
F0.287924
sS'kitchen'
p484
F0.0204391
sa(dp485
S'livingroom - window'
p486
F0.486932
sS'livingroom'
p487
F0.979561
sS'livingroom - sofa'
p488
F0.204704
sS'livingroom - dining table'
p489
F0.0
sg6
F1478596578.9871323
sS'livingroom - study'
p490
F0.287924
sS'kitchen'
p491
F0.0204391
sa(dp492
S'livingroom - window'
p493
F0.486932
sS'livingroom'
p494
F0.979561
sS'livingroom - sofa'
p495
F0.204704
sS'livingroom - dining table'
p496
F0.0
sg6
F1478596579.9823015
sS'livingroom - study'
p497
F0.287924
sS'kitchen'
p498
F0.0204391
sa(dp499
S'livingroom - window'
p500
F0.486932
sS'livingroom'
p501
F0.979561
sS'livingroom - sofa'
p502
F0.204704
sS'livingroom - dining table'
p503
F0.0
sg6
F1478596580.9877176
sS'livingroom - study'
p504
F0.287924
sS'kitchen'
p505
F0.0204391
sa(dp506
S'livingroom - window'
p507
F0.486932
sS'livingroom'
p508
F0.979561
sS'livingroom - sofa'
p509
F0.204704
sS'livingroom - dining table'
p510
F0.0
sg6
F1478596581.9832454
sS'livingroom - study'
p511
F0.287924
sS'kitchen'
p512
F0.0204391
sa(dp513
S'livingroom - window'
p514
F0.486932
sS'livingroom'
p515
F0.979561
sS'livingroom - sofa'
p516
F0.204704
sS'livingroom - dining table'
p517
F0.0
sg6
F1478596582.9888916
sS'livingroom - study'
p518
F0.287924
sS'kitchen'
p519
F0.0204391
sa(dp520
S'livingroom - window'
p521
F0.486932
sS'livingroom'
p522
F0.979561
sS'livingroom - sofa'
p523
F0.204704
sS'livingroom - dining table'
p524
F0.0
sg6
F1478596583.984621
sS'livingroom - study'
p525
F0.287924
sS'kitchen'
p526
F0.0204391
sa(dp527
S'livingroom - window'
p528
F0.486932
sS'livingroom'
p529
F0.979561
sS'livingroom - sofa'
p530
F0.204704
sS'livingroom - dining table'
p531
F0.0
sg6
F1478596584.9900534
sS'livingroom - study'
p532
F0.287924
sS'kitchen'
p533
F0.0204391
sa(dp534
S'livingroom - window'
p535
F0.486932
sS'livingroom'
p536
F0.979561
sS'livingroom - sofa'
p537
F0.204704
sS'livingroom - dining table'
p538
F0.0
sg6
F1478596585.9857333
sS'livingroom - study'
p539
F0.287924
sS'kitchen'
p540
F0.0204391
sa(dp541
S'livingroom - window'
p542
F0.486932
sS'livingroom'
p543
F0.979561
sS'livingroom - sofa'
p544
F0.204704
sS'livingroom - dining table'
p545
F0.0
sg6
F1478596586.9820035
sS'livingroom - study'
p546
F0.287924
sS'kitchen'
p547
F0.0204391
sa(dp548
S'livingroom - window'
p549
F0.486932
sS'livingroom'
p550
F0.979561
sS'livingroom - sofa'
p551
F0.204704
sS'livingroom - dining table'
p552
F0.0
sg6
F1478596587.9873157
sS'livingroom - study'
p553
F0.287924
sS'kitchen'
p554
F0.0204391
sa(dp555
S'livingroom - window'
p556
F0.486932
sS'livingroom'
p557
F0.979561
sS'livingroom - sofa'
p558
F0.204704
sS'livingroom - dining table'
p559
F0.0
sg6
F1478596588.9854827
sS'livingroom - study'
p560
F0.287924
sS'kitchen'
p561
F0.0204391
sa(dp562
S'livingroom - window'
p563
F0.486932
sS'livingroom'
p564
F0.979561
sS'livingroom - sofa'
p565
F0.204704
sS'livingroom - dining table'
p566
F0.0
sg6
F1478596589.9709444
sS'livingroom - study'
p567
F0.287924
sS'kitchen'
p568
F0.0204391
sa(dp569
S'livingroom - window'
p570
F0.486932
sS'livingroom'
p571
F0.979561
sS'livingroom - sofa'
p572
F0.204704
sS'livingroom - dining table'
p573
F0.0
sg6
F1478596590.986572
sS'livingroom - study'
p574
F0.287924
sS'kitchen'
p575
F0.0204391
sa(dp576
S'livingroom - window'
p577
F0.486932
sS'livingroom'
p578
F0.979561
sS'livingroom - sofa'
p579
F0.204704
sS'livingroom - dining table'
p580
F0.0
sg6
F1478596591.9822059
sS'livingroom - study'
p581
F0.287924
sS'kitchen'
p582
F0.0204391
sa(dp583
S'livingroom - window'
p584
F0.486932
sS'livingroom'
p585
F0.979561
sS'livingroom - sofa'
p586
F0.204704
sS'livingroom - dining table'
p587
F0.0
sg6
F1478596592.9876013
sS'livingroom - study'
p588
F0.287924
sS'kitchen'
p589
F0.0204391
sa(dp590
S'livingroom - window'
p591
F0.486932
sS'livingroom'
p592
F0.979561
sS'livingroom - sofa'
p593
F0.204704
sS'livingroom - dining table'
p594
F0.0
sg6
F1478596593.983603
sS'livingroom - study'
p595
F0.287924
sS'kitchen'
p596
F0.0204391
sa(dp597
S'livingroom - window'
p598
F0.486932
sS'livingroom'
p599
F0.979561
sS'livingroom - sofa'
p600
F0.204704
sS'livingroom - dining table'
p601
F0.0
sg6
F1478596594.989141
sS'livingroom - study'
p602
F0.287924
sS'kitchen'
p603
F0.0204391
sa(dp604
S'livingroom - window'
p605
F0.486932
sS'livingroom'
p606
F0.979561
sS'livingroom - sofa'
p607
F0.204704
sS'livingroom - dining table'
p608
F0.0
sg6
F1478596595.984383
sS'livingroom - study'
p609
F0.287924
sS'kitchen'
p610
F0.0204391
sa(dp611
S'livingroom - window'
p612
F0.486932
sS'livingroom'
p613
F0.979561
sS'livingroom - sofa'
p614
F0.204704
sS'livingroom - dining table'
p615
F0.0
sg6
F1478596596.9899018
sS'livingroom - study'
p616
F0.287924
sS'kitchen'
p617
F0.0204391
sa(dp618
S'livingroom - window'
p619
F0.486932
sS'livingroom'
p620
F0.979561
sS'livingroom - sofa'
p621
F0.204704
sS'livingroom - dining table'
p622
F0.0
sg6
F1478596597.9869914
sS'livingroom - study'
p623
F0.287924
sS'kitchen'
p624
F0.0204391
sa(dp625
S'livingroom - window'
p626
F0.486932
sS'livingroom'
p627
F0.979561
sS'livingroom - sofa'
p628
F0.204704
sS'livingroom - dining table'
p629
F0.0
sg6
F1478596598.9831822
sS'livingroom - study'
p630
F0.287924
sS'kitchen'
p631
F0.0204391
sa(dp632
S'livingroom - window'
p633
F0.486932
sS'livingroom'
p634
F0.979561
sS'livingroom - sofa'
p635
F0.204704
sS'livingroom - dining table'
p636
F0.0
sg6
F1478596599.980357
sS'livingroom - study'
p637
F0.287924
sS'kitchen'
p638
F0.0204391
sa(dp639
S'livingroom - window'
p640
F0.486932
sS'livingroom'
p641
F0.979561
sS'livingroom - sofa'
p642
F0.204704
sS'livingroom - dining table'
p643
F0.0
sg6
F1478596600.9864037
sS'livingroom - study'
p644
F0.287924
sS'kitchen'
p645
F0.0204391
sa(dp646
S'livingroom - window'
p647
F0.486932
sS'livingroom'
p648
F0.979561
sS'livingroom - sofa'
p649
F0.204704
sS'livingroom - dining table'
p650
F0.0
sg6
F1478596601.9818885
sS'livingroom - study'
p651
F0.287924
sS'kitchen'
p652
F0.0204391
sa(dp653
S'livingroom - window'
p654
F0.486932
sS'livingroom'
p655
F0.979561
sS'livingroom - sofa'
p656
F0.204704
sS'livingroom - dining table'
p657
F0.0
sg6
F1478596602.9886403
sS'livingroom - study'
p658
F0.287924
sS'kitchen'
p659
F0.0204391
sa(dp660
S'livingroom - window'
p661
F0.486932
sS'livingroom'
p662
F0.979561
sS'livingroom - sofa'
p663
F0.204704
sS'livingroom - dining table'
p664
F0.0
sg6
F1478596603.9848096
sS'livingroom - study'
p665
F0.287924
sS'kitchen'
p666
F0.0204391
sa(dp667
S'livingroom - window'
p668
F0.486932
sS'livingroom'
p669
F0.979561
sS'livingroom - sofa'
p670
F0.204704
sS'livingroom - dining table'
p671
F0.0
sg6
F1478596604.9824228
sS'livingroom - study'
p672
F0.287924
sS'kitchen'
p673
F0.0204391
sa(dp674
S'livingroom - window'
p675
F0.486932
sS'livingroom'
p676
F0.979561
sS'livingroom - sofa'
p677
F0.204704
sS'livingroom - dining table'
p678
F0.0
sg6
F1478596605.9898272
sS'livingroom - study'
p679
F0.287924
sS'kitchen'
p680
F0.0204391
sa(dp681
S'livingroom - window'
p682
F0.486932
sS'livingroom'
p683
F0.979561
sS'livingroom - sofa'
p684
F0.204704
sS'livingroom - dining table'
p685
F0.0
sg6
F1478596606.9852188
sS'livingroom - study'
p686
F0.287924
sS'kitchen'
p687
F0.0204391
sa(dp688
S'livingroom - window'
p689
F0.486932
sS'livingroom'
p690
F0.979561
sS'livingroom - sofa'
p691
F0.204704
sS'livingroom - dining table'
p692
F0.0
sg6
F1478596607.9828405
sS'livingroom - study'
p693
F0.287924
sS'kitchen'
p694
F0.0204391
sa(dp695
S'livingroom - window'
p696
F0.486932
sS'livingroom'
p697
F0.979561
sS'livingroom - sofa'
p698
F0.204704
sS'livingroom - dining table'
p699
F0.0
sg6
F1478596608.9882798
sS'livingroom - study'
p700
F0.287924
sS'kitchen'
p701
F0.0204391
sa(dp702
S'livingroom - window'
p703
F0.486932
sS'livingroom'
p704
F0.979561
sS'livingroom - sofa'
p705
F0.204704
sS'livingroom - dining table'
p706
F0.0
sg6
F1478596609.9841282
sS'livingroom - study'
p707
F0.287924
sS'kitchen'
p708
F0.0204391
sa(dp709
S'livingroom - window'
p710
F0.486932
sS'livingroom'
p711
F0.979561
sS'livingroom - sofa'
p712
F0.204704
sS'livingroom - dining table'
p713
F0.0
sg6
F1478596610.98984
sS'livingroom - study'
p714
F0.287924
sS'kitchen'
p715
F0.0204391
sa(dp716
S'livingroom - window'
p717
F0.486932
sS'livingroom'
p718
F0.979561
sS'livingroom - sofa'
p719
F0.204704
sS'livingroom - dining table'
p720
F0.0
sg6
F1478596611.9874587
sS'livingroom - study'
p721
F0.287924
sS'kitchen'
p722
F0.0204391
sa(dp723
S'livingroom - window'
p724
F0.486932
sS'livingroom'
p725
F0.979561
sS'livingroom - sofa'
p726
F0.204704
sS'livingroom - dining table'
p727
F0.0
sg6
F1478596612.9864087
sS'livingroom - study'
p728
F0.287924
sS'kitchen'
p729
F0.0204391
sa(dp730
S'livingroom - window'
p731
F0.486932
sS'livingroom'
p732
F0.979561
sS'livingroom - sofa'
p733
F0.204704
sS'livingroom - dining table'
p734
F0.0
sg6
F1478596613.9819512
sS'livingroom - study'
p735
F0.287924
sS'kitchen'
p736
F0.0204391
sa(dp737
S'livingroom - window'
p738
F0.486932
sS'livingroom'
p739
F0.979561
sS'livingroom - sofa'
p740
F0.204704
sS'livingroom - dining table'
p741
F0.0
sg6
F1478596614.983344
sS'livingroom - study'
p742
F0.287924
sS'kitchen'
p743
F0.0204391
sa(dp744
S'livingroom - window'
p745
F0.486932
sS'livingroom'
p746
F0.979561
sS'livingroom - sofa'
p747
F0.204704
sS'livingroom - dining table'
p748
F0.0
sg6
F1478596615.988837
sS'livingroom - study'
p749
F0.287924
sS'kitchen'
p750
F0.0204391
sa(dp751
S'livingroom - window'
p752
F0.486932
sS'livingroom'
p753
F0.979561
sS'livingroom - sofa'
p754
F0.204704
sS'livingroom - dining table'
p755
F0.0
sg6
F1478596616.9842546
sS'livingroom - study'
p756
F0.287924
sS'kitchen'
p757
F0.0204391
sa(dp758
S'livingroom - window'
p759
F0.486932
sS'livingroom'
p760
F0.979561
sS'livingroom - sofa'
p761
F0.204704
sS'livingroom - dining table'
p762
F0.0
sg6
F1478596617.989277
sS'livingroom - study'
p763
F0.287924
sS'kitchen'
p764
F0.0204391
sa(dp765
S'livingroom - window'
p766
F0.486932
sS'livingroom'
p767
F0.979561
sS'livingroom - sofa'
p768
F0.204704
sS'livingroom - dining table'
p769
F0.0
sg6
F1478596618.9866743
sS'livingroom - study'
p770
F0.287924
sS'kitchen'
p771
F0.0204391
sa(dp772
S'livingroom - window'
p773
F0.486932
sS'livingroom'
p774
F0.979561
sS'livingroom - sofa'
p775
F0.204704
sS'livingroom - dining table'
p776
F0.0
sg6
F1478596619.9843085
sS'livingroom - study'
p777
F0.287924
sS'kitchen'
p778
F0.0204391
sa(dp779
S'livingroom - window'
p780
F0.486932
sS'livingroom'
p781
F0.979561
sS'livingroom - sofa'
p782
F0.204704
sS'livingroom - dining table'
p783
F0.0
sg6
F1478596620.9900935
sS'livingroom - study'
p784
F0.287924
sS'kitchen'
p785
F0.0204391
sa(dp786
S'livingroom - window'
p787
F0.486932
sS'livingroom'
p788
F0.979561
sS'livingroom - sofa'
p789
F0.204704
sS'livingroom - dining table'
p790
F0.0
sg6
F1478596621.9856672
sS'livingroom - study'
p791
F0.287924
sS'kitchen'
p792
F0.0204391
sa(dp793
S'livingroom - window'
p794
F0.486932
sS'livingroom'
p795
F0.979561
sS'livingroom - sofa'
p796
F0.204704
sS'livingroom - dining table'
p797
F0.0
sg6
F1478596622.9813128
sS'livingroom - study'
p798
F0.287924
sS'kitchen'
p799
F0.0204391
sa(dp800
S'livingroom - window'
p801
F0.486932
sS'livingroom'
p802
F0.979561
sS'livingroom - sofa'
p803
F0.204704
sS'livingroom - dining table'
p804
F0.0
sg6
F1478596623.9875958
sS'livingroom - study'
p805
F0.287924
sS'kitchen'
p806
F0.0204391
sa(dp807
S'livingroom - window'
p808
F0.486932
sS'livingroom'
p809
F0.979561
sS'livingroom - sofa'
p810
F0.204704
sS'livingroom - dining table'
p811
F0.0
sg6
F1478596624.9838789
sS'livingroom - study'
p812
F0.287924
sS'kitchen'
p813
F0.0204391
sa(dp814
S'livingroom - window'
p815
F0.486932
sS'livingroom'
p816
F0.979561
sS'livingroom - sofa'
p817
F0.204704
sS'livingroom - dining table'
p818
F0.0
sg6
F1478596625.9901917
sS'livingroom - study'
p819
F0.287924
sS'kitchen'
p820
F0.0204391
sa(dp821
S'livingroom - window'
p822
F0.486932
sS'livingroom'
p823
F0.979561
sS'livingroom - sofa'
p824
F0.204704
sS'livingroom - dining table'
p825
F0.0
sg6
F1478596626.9864478
sS'livingroom - study'
p826
F0.287924
sS'kitchen'
p827
F0.0204391
sa(dp828
S'livingroom - window'
p829
F0.486932
sS'livingroom'
p830
F0.979561
sS'livingroom - sofa'
p831
F0.204704
sS'livingroom - dining table'
p832
F0.0
sg6
F1478596627.982079
sS'livingroom - study'
p833
F0.287924
sS'kitchen'
p834
F0.0204391
sa(dp835
S'livingroom - window'
p836
F0.486932
sS'livingroom'
p837
F0.979561
sS'livingroom - sofa'
p838
F0.204704
sS'livingroom - dining table'
p839
F0.0
sg6
F1478596628.9876916
sS'livingroom - study'
p840
F0.287924
sS'kitchen'
p841
F0.0204391
sa(dp842
S'livingroom - window'
p843
F0.486932
sS'livingroom'
p844
F0.979561
sS'livingroom - sofa'
p845
F0.204704
sS'livingroom - dining table'
p846
F0.0
sg6
F1478596629.9832184
sS'livingroom - study'
p847
F0.287924
sS'kitchen'
p848
F0.0204391
sa(dp849
S'livingroom - window'
p850
F0.486932
sS'livingroom'
p851
F0.979561
sS'livingroom - sofa'
p852
F0.204704
sS'livingroom - dining table'
p853
F0.0
sg6
F1478596630.9887621
sS'livingroom - study'
p854
F0.287924
sS'kitchen'
p855
F0.0204391
sa(dp856
S'livingroom - window'
p857
F0.486932
sS'livingroom'
p858
F0.979561
sS'livingroom - sofa'
p859
F0.204704
sS'livingroom - dining table'
p860
F0.0
sg6
F1478596631.984204
sS'livingroom - study'
p861
F0.287924
sS'kitchen'
p862
F0.0204391
sa(dp863
S'livingroom - window'
p864
F0.486932
sS'livingroom'
p865
F0.979561
sS'livingroom - sofa'
p866
F0.204704
sS'livingroom - dining table'
p867
F0.0
sg6
F1478596632.9895952
sS'livingroom - study'
p868
F0.287924
sS'kitchen'
p869
F0.0204391
sa(dp870
S'livingroom - window'
p871
F0.486932
sS'livingroom'
p872
F0.979561
sS'livingroom - sofa'
p873
F0.204704
sS'livingroom - dining table'
p874
F0.0
sg6
F1478596633.985792
sS'livingroom - study'
p875
F0.287924
sS'kitchen'
p876
F0.0204391
sa(dp877
S'livingroom - window'
p878
F0.486932
sS'livingroom'
p879
F0.979561
sS'livingroom - sofa'
p880
F0.204704
sS'livingroom - dining table'
p881
F0.0
sg6
F1478596634.9819996
sS'livingroom - study'
p882
F0.287924
sS'kitchen'
p883
F0.0204391
sa(dp884
S'livingroom - window'
p885
F0.486932
sS'livingroom'
p886
F0.979561
sS'livingroom - sofa'
p887
F0.204704
sS'livingroom - dining table'
p888
F0.0
sg6
F1478596635.9876547
sS'livingroom - study'
p889
F0.287924
sS'kitchen'
p890
F0.0204391
sa(dp891
S'livingroom - window'
p892
F0.486932
sS'livingroom'
p893
F0.979561
sS'livingroom - sofa'
p894
F0.204704
sS'livingroom - dining table'
p895
F0.0
sg6
F1478596636.9833002
sS'livingroom - study'
p896
F0.287924
sS'kitchen'
p897
F0.0204391
sa(dp898
S'livingroom - window'
p899
F0.486932
sS'livingroom'
p900
F0.979561
sS'livingroom - sofa'
p901
F0.204704
sS'livingroom - dining table'
p902
F0.0
sg6
F1478596637.989348
sS'livingroom - study'
p903
F0.287924
sS'kitchen'
p904
F0.0204391
sa(dp905
S'livingroom - window'
p906
F0.486932
sS'livingroom'
p907
F0.979561
sS'livingroom - sofa'
p908
F0.204704
sS'livingroom - dining table'
p909
F0.0
sg6
F1478596638.9849598
sS'livingroom - study'
p910
F0.287924
sS'kitchen'
p911
F0.0204391
sa(dp912
S'livingroom - window'
p913
F0.486932
sS'livingroom'
p914
F0.979561
sS'livingroom - sofa'
p915
F0.204704
sS'livingroom - dining table'
p916
F0.0
sg6
F1478596639.9802957
sS'livingroom - study'
p917
F0.287924
sS'kitchen'
p918
F0.0204391
sa(dp919
S'livingroom - window'
p920
F0.486932
sS'livingroom'
p921
F0.979561
sS'livingroom - sofa'
p922
F0.204704
sS'livingroom - dining table'
p923
F0.0
sg6
F1478596640.985808
sS'livingroom - study'
p924
F0.287924
sS'kitchen'
p925
F0.0204391
sa(dp926
S'livingroom - window'
p927
F0.486932
sS'livingroom'
p928
F0.979561
sS'livingroom - sofa'
p929
F0.204704
sS'livingroom - dining table'
p930
F0.0
sg6
F1478596641.981334
sS'livingroom - study'
p931
F0.287924
sS'kitchen'
p932
F0.0204391
sa(dp933
S'livingroom - window'
p934
F0.486932
sS'livingroom'
p935
F0.979561
sS'livingroom - sofa'
p936
F0.204704
sS'livingroom - dining table'
p937
F0.0
sg6
F1478596642.9875
sS'livingroom - study'
p938
F0.287924
sS'kitchen'
p939
F0.0204391
sa(dp940
S'livingroom - window'
p941
F0.486932
sS'livingroom'
p942
F0.979561
sS'livingroom - sofa'
p943
F0.204704
sS'livingroom - dining table'
p944
F0.0
sg6
F1478596643.9830277
sS'livingroom - study'
p945
F0.287924
sS'kitchen'
p946
F0.0204391
sa(dp947
S'livingroom - window'
p948
F0.486932
sS'livingroom'
p949
F0.979561
sS'livingroom - sofa'
p950
F0.204704
sS'livingroom - dining table'
p951
F0.0
sg6
F1478596644.9886177
sS'livingroom - study'
p952
F0.287924
sS'kitchen'
p953
F0.0204391
sa(dp954
S'livingroom - window'
p955
F0.486932
sS'livingroom'
p956
F0.979561
sS'livingroom - sofa'
p957
F0.204704
sS'livingroom - dining table'
p958
F0.0
sg6
F1478596645.9841504
sS'livingroom - study'
p959
F0.287924
sS'kitchen'
p960
F0.0204391
sa(dp961
S'livingroom - window'
p962
F0.486932
sS'livingroom'
p963
F0.979561
sS'livingroom - sofa'
p964
F0.204704
sS'livingroom - dining table'
p965
F0.0
sg6
F1478596646.989868
sS'livingroom - study'
p966
F0.287924
sS'kitchen'
p967
F0.0204391
sa(dp968
S'livingroom - window'
p969
F0.486932
sS'livingroom'
p970
F0.979561
sS'livingroom - sofa'
p971
F0.204704
sS'livingroom - dining table'
p972
F0.0
sg6
F1478596647.9860232
sS'livingroom - study'
p973
F0.287924
sS'kitchen'
p974
F0.0204391
sa(dp975
S'livingroom - window'
p976
F0.486932
sS'livingroom'
p977
F0.979561
sS'livingroom - sofa'
p978
F0.204704
sS'livingroom - dining table'
p979
F0.0
sg6
F1478596648.9843018
sS'livingroom - study'
p980
F0.287924
sS'kitchen'
p981
F0.0204391
sa(dp982
S'livingroom - window'
p983
F0.486932
sS'livingroom'
p984
F0.979561
sS'livingroom - sofa'
p985
F0.204704
sS'livingroom - dining table'
p986
F0.0
sg6
F1478596649.9806314
sS'livingroom - study'
p987
F0.287924
sS'kitchen'
p988
F0.0204391
sa(dp989
S'livingroom - window'
p990
F0.486932
sS'livingroom'
p991
F0.979561
sS'livingroom - sofa'
p992
F0.204704
sS'livingroom - dining table'
p993
F0.0
sg6
F1478596650.9870706
sS'livingroom - study'
p994
F0.287924
sS'kitchen'
p995
F0.0204391
sa(dp996
S'livingroom - window'
p997
F0.486932
sS'livingroom'
p998
F0.979561
sS'livingroom - sofa'
p999
F0.204704
sS'livingroom - dining table'
p1000
F0.0
sg6
F1478596651.983012
sS'livingroom - study'
p1001
F0.287924
sS'kitchen'
p1002
F0.0204391
sa(dp1003
S'livingroom - window'
p1004
F0.486932
sS'livingroom'
p1005
F0.979561
sS'livingroom - sofa'
p1006
F0.204704
sS'livingroom - dining table'
p1007
F0.0
sg6
F1478596652.989692
sS'livingroom - study'
p1008
F0.287924
sS'kitchen'
p1009
F0.0204391
sa(dp1010
S'livingroom - window'
p1011
F0.486932
sS'livingroom'
p1012
F0.979561
sS'livingroom - sofa'
p1013
F0.204704
sS'livingroom - dining table'
p1014
F0.0
sg6
F1478596653.9857533
sS'livingroom - study'
p1015
F0.287924
sS'kitchen'
p1016
F0.0204391
sa(dp1017
S'livingroom - window'
p1018
F0.486932
sS'livingroom'
p1019
F0.979561
sS'livingroom - sofa'
p1020
F0.204704
sS'livingroom - dining table'
p1021
F0.0
sg6
F1478596654.982016
sS'livingroom - study'
p1022
F0.287924
sS'kitchen'
p1023
F0.0204391
sa(dp1024
S'livingroom - window'
p1025
F0.486932
sS'livingroom'
p1026
F0.979561
sS'livingroom - sofa'
p1027
F0.204704
sS'livingroom - dining table'
p1028
F0.0
sg6
F1478596655.9779737
sS'livingroom - study'
p1029
F0.287924
sS'kitchen'
p1030
F0.0204391
sa(dp1031
S'livingroom - window'
p1032
F0.486932
sS'livingroom'
p1033
F0.979561
sS'livingroom - sofa'
p1034
F0.204704
sS'livingroom - dining table'
p1035
F0.0
sg6
F1478596656.9845524
sS'livingroom - study'
p1036
F0.287924
sS'kitchen'
p1037
F0.0204391
sa(dp1038
S'livingroom - window'
p1039
F0.486932
sS'livingroom'
p1040
F0.979561
sS'livingroom - sofa'
p1041
F0.204704
sS'livingroom - dining table'
p1042
F0.0
sg6
F1478596657.9806812
sS'livingroom - study'
p1043
F0.287924
sS'kitchen'
p1044
F0.0204391
sa(dp1045
S'livingroom - window'
p1046
F0.486932
sS'livingroom'
p1047
F0.979561
sS'livingroom - sofa'
p1048
F0.204704
sS'livingroom - dining table'
p1049
F0.0
sg6
F1478596658.9866211
sS'livingroom - study'
p1050
F0.287924
sS'kitchen'
p1051
F0.0204391
sa(dp1052
S'livingroom - window'
p1053
F0.486932
sS'livingroom'
p1054
F0.979561
sS'livingroom - sofa'
p1055
F0.204704
sS'livingroom - dining table'
p1056
F0.0
sg6
F1478596659.9824293
sS'livingroom - study'
p1057
F0.287924
sS'kitchen'
p1058
F0.0204391
sa(dp1059
S'livingroom - window'
p1060
F0.486932
sS'livingroom'
p1061
F0.979561
sS'livingroom - sofa'
p1062
F0.204704
sS'livingroom - dining table'
p1063
F0.0
sg6
F1478596660.988356
sS'livingroom - study'
p1064
F0.287924
sS'kitchen'
p1065
F0.0204391
sa(dp1066
S'livingroom - window'
p1067
F0.486932
sS'livingroom'
p1068
F0.979561
sS'livingroom - sofa'
p1069
F0.204704
sS'livingroom - dining table'
p1070
F0.0
sg6
F1478596661.9838874
sS'livingroom - study'
p1071
F0.287924
sS'kitchen'
p1072
F0.0204391
sa(dp1073
S'livingroom - window'
p1074
F0.486932
sS'livingroom'
p1075
F0.979561
sS'livingroom - sofa'
p1076
F0.204704
sS'livingroom - dining table'
p1077
F0.0
sg6
F1478596662.9893653
sS'livingroom - study'
p1078
F0.287924
sS'kitchen'
p1079
F0.0204391
sa(dp1080
S'livingroom - window'
p1081
F0.486932
sS'livingroom'
p1082
F0.979561
sS'livingroom - sofa'
p1083
F0.204704
sS'livingroom - dining table'
p1084
F0.0
sg6
F1478596663.9852855
sS'livingroom - study'
p1085
F0.287924
sS'kitchen'
p1086
F0.0204391
sa(dp1087
S'livingroom - window'
p1088
F0.486932
sS'livingroom'
p1089
F0.979561
sS'livingroom - sofa'
p1090
F0.204704
sS'livingroom - dining table'
p1091
F0.0
sg6
F1478596664.9812202
sS'livingroom - study'
p1092
F0.287924
sS'kitchen'
p1093
F0.0204391
sa(dp1094
S'livingroom - window'
p1095
F0.486932
sS'livingroom'
p1096
F0.979561
sS'livingroom - sofa'
p1097
F0.204704
sS'livingroom - dining table'
p1098
F0.0
sg6
F1478596665.9872878
sS'livingroom - study'
p1099
F0.287924
sS'kitchen'
p1100
F0.0204391
sa(dp1101
S'livingroom - window'
p1102
F0.486932
sS'livingroom'
p1103
F0.979561
sS'livingroom - sofa'
p1104
F0.204704
sS'livingroom - dining table'
p1105
F0.0
sg6
F1478596666.9829092
sS'livingroom - study'
p1106
F0.287924
sS'kitchen'
p1107
F0.0204391
sa(dp1108
S'livingroom - window'
p1109
F0.486932
sS'livingroom'
p1110
F0.979561
sS'livingroom - sofa'
p1111
F0.204704
sS'livingroom - dining table'
p1112
F0.0
sg6
F1478596667.9888773
sS'livingroom - study'
p1113
F0.287924
sS'kitchen'
p1114
F0.0204391
sa(dp1115
S'livingroom - window'
p1116
F0.486932
sS'livingroom'
p1117
F0.979561
sS'livingroom - sofa'
p1118
F0.204704
sS'livingroom - dining table'
p1119
F0.0
sg6
F1478596668.9856305
sS'livingroom - study'
p1120
F0.287924
sS'kitchen'
p1121
F0.0204391
sa(dp1122
S'livingroom - window'
p1123
F0.486932
sS'livingroom'
p1124
F0.979561
sS'livingroom - sofa'
p1125
F0.204704
sS'livingroom - dining table'
p1126
F0.0
sg6
F1478596669.9818954
sS'livingroom - study'
p1127
F0.287924
sS'kitchen'
p1128
F0.0204391
sa(dp1129
S'livingroom - window'
p1130
F0.486932
sS'livingroom'
p1131
F0.979561
sS'livingroom - sofa'
p1132
F0.204704
sS'livingroom - dining table'
p1133
F0.0
sg6
F1478596670.9882107
sS'livingroom - study'
p1134
F0.287924
sS'kitchen'
p1135
F0.0204391
sa(dp1136
S'livingroom - window'
p1137
F0.486932
sS'livingroom'
p1138
F0.979561
sS'livingroom - sofa'
p1139
F0.204704
sS'livingroom - dining table'
p1140
F0.0
sg6
F1478596671.984269
sS'livingroom - study'
p1141
F0.287924
sS'kitchen'
p1142
F0.0204391
sa(dp1143
S'livingroom - window'
p1144
F0.486932
sS'livingroom'
p1145
F0.979561
sS'livingroom - sofa'
p1146
F0.204704
sS'livingroom - dining table'
p1147
F0.0
sg6
F1478596672.9805753
sS'livingroom - study'
p1148
F0.287924
sS'kitchen'
p1149
F0.0204391
sa(dp1150
S'livingroom - window'
p1151
F0.486932
sS'livingroom'
p1152
F0.979561
sS'livingroom - sofa'
p1153
F0.204704
sS'livingroom - dining table'
p1154
F0.0
sg6
F1478596673.9870303
sS'livingroom - study'
p1155
F0.287924
sS'kitchen'
p1156
F0.0204391
sa(dp1157
S'livingroom - window'
p1158
F0.486932
sS'livingroom'
p1159
F0.979561
sS'livingroom - sofa'
p1160
F0.204704
sS'livingroom - dining table'
p1161
F0.0
sg6
F1478596674.9831135
sS'livingroom - study'
p1162
F0.287924
sS'kitchen'
p1163
F0.0204391
sa(dp1164
S'livingroom - window'
p1165
F0.486932
sS'livingroom'
p1166
F0.979561
sS'livingroom - sofa'
p1167
F0.204704
sS'livingroom - dining table'
p1168
F0.0
sg6
F1478596675.9889438
sS'livingroom - study'
p1169
F0.287924
sS'kitchen'
p1170
F0.0204391
sa(dp1171
S'livingroom - window'
p1172
F0.486932
sS'livingroom'
p1173
F0.979561
sS'livingroom - sofa'
p1174
F0.204704
sS'livingroom - dining table'
p1175
F0.0
sg6
F1478596676.9852679
sS'livingroom - study'
p1176
F0.287924
sS'kitchen'
p1177
F0.0204391
sa(dp1178
S'livingroom - window'
p1179
F0.486932
sS'livingroom'
p1180
F0.979561
sS'livingroom - sofa'
p1181
F0.204704
sS'livingroom - dining table'
p1182
F0.0
sg6
F1478596677.9814668
sS'livingroom - study'
p1183
F0.287924
sS'kitchen'
p1184
F0.0204391
sa(dp1185
S'livingroom - window'
p1186
F0.486932
sS'livingroom'
p1187
F0.979561
sS'livingroom - sofa'
p1188
F0.204704
sS'livingroom - dining table'
p1189
F0.0
sg6
F1478596678.9878967
sS'livingroom - study'
p1190
F0.287924
sS'kitchen'
p1191
F0.0204391
sa(dp1192
S'livingroom - window'
p1193
F0.486932
sS'livingroom'
p1194
F0.979561
sS'livingroom - sofa'
p1195
F0.204704
sS'livingroom - dining table'
p1196
F0.0
sg6
F1478596679.9839373
sS'livingroom - study'
p1197
F0.287924
sS'kitchen'
p1198
F0.0204391
sa(dp1199
S'livingroom - window'
p1200
F0.486932
sS'livingroom'
p1201
F0.979561
sS'livingroom - sofa'
p1202
F0.204704
sS'livingroom - dining table'
p1203
F0.0
sg6
F1478596680.9803872
sS'livingroom - study'
p1204
F0.287924
sS'kitchen'
p1205
F0.0204391
sa(dp1206
S'livingroom - window'
p1207
F0.486932
sS'livingroom'
p1208
F0.979561
sS'livingroom - sofa'
p1209
F0.204704
sS'livingroom - dining table'
p1210
F0.0
sg6
F1478596681.9864783
sS'livingroom - study'
p1211
F0.287924
sS'kitchen'
p1212
F0.0204391
sa(dp1213
S'livingroom - window'
p1214
F0.486932
sS'livingroom'
p1215
F0.979561
sS'livingroom - sofa'
p1216
F0.204704
sS'livingroom - dining table'
p1217
F0.0
sg6
F1478596682.9825046
sS'livingroom - study'
p1218
F0.287924
sS'kitchen'
p1219
F0.0204391
sa(dp1220
S'livingroom - window'
p1221
F0.486932
sS'livingroom'
p1222
F0.979561
sS'livingroom - sofa'
p1223
F0.204704
sS'livingroom - dining table'
p1224
F0.0
sg6
F1478596683.9888926
sS'livingroom - study'
p1225
F0.287924
sS'kitchen'
p1226
F0.0204391
sa(dp1227
S'livingroom - window'
p1228
F0.486932
sS'livingroom'
p1229
F0.979561
sS'livingroom - sofa'
p1230
F0.204704
sS'livingroom - dining table'
p1231
F0.0
sg6
F1478596684.9852123
sS'livingroom - study'
p1232
F0.287924
sS'kitchen'
p1233
F0.0204391
sa(dp1234
S'livingroom - window'
p1235
F0.486932
sS'livingroom'
p1236
F0.979561
sS'livingroom - sofa'
p1237
F0.204704
sS'livingroom - dining table'
p1238
F0.0
sg6
F1478596685.9817736
sS'livingroom - study'
p1239
F0.287924
sS'kitchen'
p1240
F0.0204391
sa(dp1241
S'livingroom - window'
p1242
F0.486932
sS'livingroom'
p1243
F0.979561
sS'livingroom - sofa'
p1244
F0.204704
sS'livingroom - dining table'
p1245
F0.0
sg6
F1478596686.9879465
sS'livingroom - study'
p1246
F0.287924
sS'kitchen'
p1247
F0.0204391
sa(dp1248
S'livingroom - window'
p1249
F0.486932
sS'livingroom'
p1250
F0.979561
sS'livingroom - sofa'
p1251
F0.204704
sS'livingroom - dining table'
p1252
F0.0
sg6
F1478596687.9840314
sS'livingroom - study'
p1253
F0.287924
sS'kitchen'
p1254
F0.0204391
sa(dp1255
S'livingroom - window'
p1256
F0.486932
sS'livingroom'
p1257
F0.979561
sS'livingroom - sofa'
p1258
F0.204704
sS'livingroom - dining table'
p1259
F0.0
sg6
F1478596688.9900613
sS'livingroom - study'
p1260
F0.287924
sS'kitchen'
p1261
F0.0204391
sa(dp1262
S'livingroom - window'
p1263
F0.486932
sS'livingroom'
p1264
F0.979561
sS'livingroom - sofa'
p1265
F0.204704
sS'livingroom - dining table'
p1266
F0.0
sg6
F1478596689.9861217
sS'livingroom - study'
p1267
F0.287924
sS'kitchen'
p1268
F0.0204391
sa(dp1269
S'livingroom - window'
p1270
F0.486932
sS'livingroom'
p1271
F0.979561
sS'livingroom - sofa'
p1272
F0.204704
sS'livingroom - dining table'
p1273
F0.0
sg6
F1478596690.9825108
sS'livingroom - study'
p1274
F0.287924
sS'kitchen'
p1275
F0.0204391
sa(dp1276
S'livingroom - window'
p1277
F0.486932
sS'livingroom'
p1278
F0.979561
sS'livingroom - sofa'
p1279
F0.204704
sS'livingroom - dining table'
p1280
F0.0
sg6
F1478596691.9820237
sS'livingroom - study'
p1281
F0.287924
sS'kitchen'
p1282
F0.0204391
sa(dp1283
S'livingroom - window'
p1284
F0.486932
sS'livingroom'
p1285
F0.979561
sS'livingroom - sofa'
p1286
F0.204704
sS'livingroom - dining table'
p1287
F0.0
sg6
F1478596692.988654
sS'livingroom - study'
p1288
F0.287924
sS'kitchen'
p1289
F0.0204391
sa(dp1290
S'livingroom - window'
p1291
F0.486932
sS'livingroom'
p1292
F0.979561
sS'livingroom - sofa'
p1293
F0.204704
sS'livingroom - dining table'
p1294
F0.0
sg6
F1478596693.9848526
sS'livingroom - study'
p1295
F0.287924
sS'kitchen'
p1296
F0.0204391
sa(dp1297
S'livingroom - window'
p1298
F0.486932
sS'livingroom'
p1299
F0.979561
sS'livingroom - sofa'
p1300
F0.204704
sS'livingroom - dining table'
p1301
F0.0
sg6
F1478596694.9810517
sS'livingroom - study'
p1302
F0.287924
sS'kitchen'
p1303
F0.0204391
sa(dp1304
S'livingroom - window'
p1305
F0.486932
sS'livingroom'
p1306
F0.979561
sS'livingroom - sofa'
p1307
F0.204704
sS'livingroom - dining table'
p1308
F0.0
sg6
F1478596695.987426
sS'livingroom - study'
p1309
F0.287924
sS'kitchen'
p1310
F0.0204391
sa(dp1311
S'livingroom - window'
p1312
F0.486932
sS'livingroom'
p1313
F0.979561
sS'livingroom - sofa'
p1314
F0.204704
sS'livingroom - dining table'
p1315
F0.0
sg6
F1478596696.9834957
sS'livingroom - study'
p1316
F0.287924
sS'kitchen'
p1317
F0.0204391
sa(dp1318
S'livingroom - window'
p1319
F0.486932
sS'livingroom'
p1320
F0.979561
sS'livingroom - sofa'
p1321
F0.204704
sS'livingroom - dining table'
p1322
F0.0
sg6
F1478596697.989832
sS'livingroom - study'
p1323
F0.287924
sS'kitchen'
p1324
F0.0204391
sa(dp1325
S'livingroom - window'
p1326
F0.486932
sS'livingroom'
p1327
F0.979561
sS'livingroom - sofa'
p1328
F0.204704
sS'livingroom - dining table'
p1329
F0.0
sg6
F1478596698.9860947
sS'livingroom - study'
p1330
F0.287924
sS'kitchen'
p1331
F0.0204391
sa(dp1332
S'livingroom - window'
p1333
F0.486932
sS'livingroom'
p1334
F0.979561
sS'livingroom - sofa'
p1335
F0.204704
sS'livingroom - dining table'
p1336
F0.0
sg6
F1478596699.9826467
sS'livingroom - study'
p1337
F0.287924
sS'kitchen'
p1338
F0.0204391
sa(dp1339
S'livingroom - window'
p1340
F0.486932
sS'livingroom'
p1341
F0.979561
sS'livingroom - sofa'
p1342
F0.204704
sS'livingroom - dining table'
p1343
F0.0
sg6
F1478596700.989101
sS'livingroom - study'
p1344
F0.287924
sS'kitchen'
p1345
F0.0204391
sa(dp1346
S'livingroom - window'
p1347
F0.486932
sS'livingroom'
p1348
F0.979561
sS'livingroom - sofa'
p1349
F0.204704
sS'livingroom - dining table'
p1350
F0.0
sg6
F1478596701.9850998
sS'livingroom - study'
p1351
F0.287924
sS'kitchen'
p1352
F0.0204391
sa(dp1353
S'livingroom - window'
p1354
F0.486932
sS'livingroom'
p1355
F0.979561
sS'livingroom - sofa'
p1356
F0.204704
sS'livingroom - dining table'
p1357
F0.0
sg6
F1478596702.9811938
sS'livingroom - study'
p1358
F0.287924
sS'kitchen'
p1359
F0.0204391
sa(dp1360
S'livingroom - window'
p1361
F0.486932
sS'livingroom'
p1362
F0.979561
sS'livingroom - sofa'
p1363
F0.204704
sS'livingroom - dining table'
p1364
F0.0
sg6
F1478596703.9876962
sS'livingroom - study'
p1365
F0.287924
sS'kitchen'
p1366
F0.0204391
sa(dp1367
S'livingroom - window'
p1368
F0.486932
sS'livingroom'
p1369
F0.979561
sS'livingroom - sofa'
p1370
F0.204704
sS'livingroom - dining table'
p1371
F0.0
sg6
F1478596704.9837115
sS'livingroom - study'
p1372
F0.287924
sS'kitchen'
p1373
F0.0204391
sa(dp1374
S'livingroom - window'
p1375
F0.486932
sS'livingroom'
p1376
F0.979561
sS'livingroom - sofa'
p1377
F0.204704
sS'livingroom - dining table'
p1378
F0.0
sg6
F1478596705.989948
sS'livingroom - study'
p1379
F0.287924
sS'kitchen'
p1380
F0.0204391
sa(dp1381
S'livingroom - window'
p1382
F0.486932
sS'livingroom'
p1383
F0.979561
sS'livingroom - sofa'
p1384
F0.204704
sS'livingroom - dining table'
p1385
F0.0
sg6
F1478596706.9897196
sS'livingroom - study'
p1386
F0.287924
sS'kitchen'
p1387
F0.0204391
sa(dp1388
S'livingroom - window'
p1389
F0.486932
sS'livingroom'
p1390
F0.979561
sS'livingroom - sofa'
p1391
F0.204704
sS'livingroom - dining table'
p1392
F0.0
sg6
F1478596707.9859216
sS'livingroom - study'
p1393
F0.287924
sS'kitchen'
p1394
F0.0204391
sa(dp1395
S'livingroom - window'
p1396
F0.486932
sS'livingroom'
p1397
F0.979561
sS'livingroom - sofa'
p1398
F0.204704
sS'livingroom - dining table'
p1399
F0.0
sg6
F1478596708.9821289
sS'livingroom - study'
p1400
F0.287924
sS'kitchen'
p1401
F0.0204391
sa(dp1402
S'livingroom - window'
p1403
F0.486932
sS'livingroom'
p1404
F0.979561
sS'livingroom - sofa'
p1405
F0.204704
sS'livingroom - dining table'
p1406
F0.0
sg6
F1478596709.9884613
sS'livingroom - study'
p1407
F0.287924
sS'kitchen'
p1408
F0.0204391
sa(dp1409
S'livingroom - window'
p1410
F0.486932
sS'livingroom'
p1411
F0.979561
sS'livingroom - sofa'
p1412
F0.204704
sS'livingroom - dining table'
p1413
F0.0
sg6
F1478596710.9845428
sS'livingroom - study'
p1414
F0.287924
sS'kitchen'
p1415
F0.0204391
sa(dp1416
S'livingroom - window'
p1417
F0.486932
sS'livingroom'
p1418
F0.979561
sS'livingroom - sofa'
p1419
F0.204704
sS'livingroom - dining table'
p1420
F0.0
sg6
F1478596711.9806933
sS'livingroom - study'
p1421
F0.287924
sS'kitchen'
p1422
F0.0204391
sa(dp1423
S'livingroom - window'
p1424
F0.486932
sS'livingroom'
p1425
F0.979561
sS'livingroom - sofa'
p1426
F0.204704
sS'livingroom - dining table'
p1427
F0.0
sg6
F1478596712.986962
sS'livingroom - study'
p1428
F0.287924
sS'kitchen'
p1429
F0.0204391
sa(dp1430
S'livingroom - window'
p1431
F0.486932
sS'livingroom'
p1432
F0.979561
sS'livingroom - sofa'
p1433
F0.204704
sS'livingroom - dining table'
p1434
F0.0
sg6
F1478596713.9830616
sS'livingroom - study'
p1435
F0.287924
sS'kitchen'
p1436
F0.0204391
sa(dp1437
S'livingroom - window'
p1438
F0.486932
sS'livingroom'
p1439
F0.979561
sS'livingroom - sofa'
p1440
F0.204704
sS'livingroom - dining table'
p1441
F0.0
sg6
F1478596714.9894845
sS'livingroom - study'
p1442
F0.287924
sS'kitchen'
p1443
F0.0204391
sa(dp1444
S'livingroom - window'
p1445
F0.486932
sS'livingroom'
p1446
F0.979561
sS'livingroom - sofa'
p1447
F0.204704
sS'livingroom - dining table'
p1448
F0.0
sg6
F1478596715.9859083
sS'livingroom - study'
p1449
F0.287924
sS'kitchen'
p1450
F0.0204391
sa(dp1451
S'livingroom - window'
p1452
F0.486932
sS'livingroom'
p1453
F0.979561
sS'livingroom - sofa'
p1454
F0.204704
sS'livingroom - dining table'
p1455
F0.0
sg6
F1478596716.9821289
sS'livingroom - study'
p1456
F0.287924
sS'kitchen'
p1457
F0.0204391
sa(dp1458
S'livingroom - window'
p1459
F0.486932
sS'livingroom'
p1460
F0.979561
sS'livingroom - sofa'
p1461
F0.204704
sS'livingroom - dining table'
p1462
F0.0
sg6
F1478596717.988234
sS'livingroom - study'
p1463
F0.287924
sS'kitchen'
p1464
F0.0204391
sa(dp1465
S'livingroom - window'
p1466
F0.486932
sS'livingroom'
p1467
F0.979561
sS'livingroom - sofa'
p1468
F0.204704
sS'livingroom - dining table'
p1469
F0.0
sg6
F1478596718.9843428
sS'livingroom - study'
p1470
F0.287924
sS'kitchen'
p1471
F0.0204391
sa(dp1472
S'livingroom - window'
p1473
F0.486932
sS'livingroom'
p1474
F0.979561
sS'livingroom - sofa'
p1475
F0.204704
sS'livingroom - dining table'
p1476
F0.0
sg6
F1478596719.980647
sS'livingroom - study'
p1477
F0.287924
sS'kitchen'
p1478
F0.0204391
sa(dp1479
S'livingroom - window'
p1480
F0.486932
sS'livingroom'
p1481
F0.979561
sS'livingroom - sofa'
p1482
F0.204704
sS'livingroom - dining table'
p1483
F0.0
sg6
F1478596720.9868023
sS'livingroom - study'
p1484
F0.287924
sS'kitchen'
p1485
F0.0204391
sa(dp1486
S'livingroom - window'
p1487
F0.486932
sS'livingroom'
p1488
F0.979561
sS'livingroom - sofa'
p1489
F0.204704
sS'livingroom - dining table'
p1490
F0.0
sg6
F1478596721.9832435
sS'livingroom - study'
p1491
F0.287924
sS'kitchen'
p1492
F0.0204391
sa(dp1493
S'livingroom - window'
p1494
F0.486932
sS'livingroom'
p1495
F0.979561
sS'livingroom - sofa'
p1496
F0.204704
sS'livingroom - dining table'
p1497
F0.0
sg6
F1478596722.9896784
sS'livingroom - study'
p1498
F0.287924
sS'kitchen'
p1499
F0.0204391
sa(dp1500
S'livingroom - window'
p1501
F0.486932
sS'livingroom'
p1502
F0.979561
sS'livingroom - sofa'
p1503
F0.204704
sS'livingroom - dining table'
p1504
F0.0
sg6
F1478596723.9859324
sS'livingroom - study'
p1505
F0.287924
sS'kitchen'
p1506
F0.0204391
sa(dp1507
S'livingroom - window'
p1508
F0.486932
sS'livingroom'
p1509
F0.979561
sS'livingroom - sofa'
p1510
F0.204704
sS'livingroom - dining table'
p1511
F0.0
sg6
F1478596724.9820929
sS'livingroom - study'
p1512
F0.287924
sS'kitchen'
p1513
F0.0204391
sa(dp1514
S'livingroom - window'
p1515
F0.486932
sS'livingroom'
p1516
F0.979561
sS'livingroom - sofa'
p1517
F0.204704
sS'livingroom - dining table'
p1518
F0.0
sg6
F1478596725.9883823
sS'livingroom - study'
p1519
F0.287924
sS'kitchen'
p1520
F0.0204391
sa(dp1521
S'livingroom - window'
p1522
F0.486932
sS'livingroom'
p1523
F0.979561
sS'livingroom - sofa'
p1524
F0.204704
sS'livingroom - dining table'
p1525
F0.0
sg6
F1478596726.984579
sS'livingroom - study'
p1526
F0.287924
sS'kitchen'
p1527
F0.0204391
sa(dp1528
S'livingroom - window'
p1529
F0.486932
sS'livingroom'
p1530
F0.979561
sS'livingroom - sofa'
p1531
F0.204704
sS'livingroom - dining table'
p1532
F0.0
sg6
F1478596727.9811072
sS'livingroom - study'
p1533
F0.287924
sS'kitchen'
p1534
F0.0204391
sa(dp1535
S'livingroom - window'
p1536
F0.486932
sS'livingroom'
p1537
F0.979561
sS'livingroom - sofa'
p1538
F0.204704
sS'livingroom - dining table'
p1539
F0.0
sg6
F1478596728.9875731
sS'livingroom - study'
p1540
F0.287924
sS'kitchen'
p1541
F0.0204391
sa(dp1542
S'livingroom - window'
p1543
F0.486932
sS'livingroom'
p1544
F0.979561
sS'livingroom - sofa'
p1545
F0.204704
sS'livingroom - dining table'
p1546
F0.0
sg6
F1478596729.9837396
sS'livingroom - study'
p1547
F0.287924
sS'kitchen'
p1548
F0.0204391
sa(dp1549
S'livingroom - window'
p1550
F0.486932
sS'livingroom'
p1551
F0.979561
sS'livingroom - sofa'
p1552
F0.204704
sS'livingroom - dining table'
p1553
F0.0
sg6
F1478596730.9899704
sS'livingroom - study'
p1554
F0.287924
sS'kitchen'
p1555
F0.0204391
sa(dp1556
S'livingroom - window'
p1557
F0.486932
sS'livingroom'
p1558
F0.979561
sS'livingroom - sofa'
p1559
F0.204704
sS'livingroom - dining table'
p1560
F0.0
sg6
F1478596731.98619
sS'livingroom - study'
p1561
F0.287924
sS'kitchen'
p1562
F0.0204391
sa.