(lp0
(dp1
S'livingroom - window'
p2
F0.75
sS'livingroom'
p3
F1.0
sS'livingroom - sofa'
p4
F0.25
sS'livingroom - dining table'
p5
F0.0
sS'time'
p6
F1478596497.5127606
sS'livingroom - study'
p7
F0.0
sS'kitchen'
p8
F0.0
sa(dp9
S'livingroom - window'
p10
F0.75
sS'livingroom'
p11
F1.0
sS'livingroom - sofa'
p12
F0.25
sS'livingroom - dining table'
p13
F0.0
sg6
F1478596514.369524
sS'livingroom - study'
p14
F0.0
sS'kitchen'
p15
F0.0
sa(dp16
S'livingroom - window'
p17
F0.410134
sS'livingroom'
p18
F0.738269
sS'livingroom - sofa'
p19
F0.187845
sS'livingroom - dining table'
p20
F0.0188001
sg6
F1478596573.283526
sS'livingroom - study'
p21
F0.12149
sS'kitchen'
p22
F0.261731
sa(dp23
S'livingroom - window'
p24
F0.119699
sS'livingroom'
p25
F0.641357
sS'livingroom - sofa'
p26
F0.224588
sS'livingroom - dining table'
p27
F0.284619
sg6
F1478596646.2054033
sS'livingroom - study'
p28
F0.0124507
sS'kitchen'
p29
F0.358643
sa.