(lp0
(dp1
S'lounge'
p2
F0.0
sS'entrance'
p3
F0.0
sS'workzone T'
p4
F0.0
sS'workzone P'
p5
F0.0
sS'lounge - sofas'
p6
F0.0
sS'workzone Y'
p7
F0.0
sS'entrance corridor'
p8
F0.0
sS'workzone G'
p9
F0.0
sS'kitchen - coffee'
p10
F0.0
sS'workzone corridor'
p11
F0.0
sS'time'
p12
F1472147519.6196597
sS'lounge - tv'
p13
F0.0
sS'kitchen - fridge'
p14
F0.0
sS'detects'
p15
I0
sS'bathroom corridor'
p16
F0.0
sS'kitchen'
p17
F0.0
sa(dp18
S'lounge'
p19
F0.0
sS'entrance'
p20
F0.0
sS'workzone T'
p21
F0.0
sS'workzone P'
p22
F0.0
sS'lounge - sofas'
p23
F0.0
sS'workzone Y'
p24
F0.0
sS'entrance corridor'
p25
F0.0
sS'workzone G'
p26
F0.0
sS'kitchen - coffee'
p27
F0.0
sS'workzone corridor'
p28
F0.0
sg12
F1472147521.6221244
sS'lounge - tv'
p29
F0.0
sS'kitchen - fridge'
p30
F0.0
sg15
I0
sS'bathroom corridor'
p31
F0.0
sS'kitchen'
p32
F0.0
sa(dp33
S'lounge'
p34
F0.0
sS'entrance'
p35
F0.0
sS'workzone T'
p36
F0.0
sS'workzone P'
p37
F0.0
sS'lounge - sofas'
p38
F0.0
sS'workzone Y'
p39
F0.0
sS'entrance corridor'
p40
F0.0
sS'workzone G'
p41
F0.0
sS'kitchen - coffee'
p42
F0.0
sS'workzone corridor'
p43
F0.0
sg12
F1472147523.6247742
sS'lounge - tv'
p44
F0.0
sS'kitchen - fridge'
p45
F0.0
sg15
I0
sS'bathroom corridor'
p46
F0.0
sS'kitchen'
p47
F0.0
sa(dp48
S'lounge'
p49
F0.0
sS'entrance'
p50
F0.0
sS'workzone T'
p51
F0.0
sS'workzone P'
p52
F0.0
sS'lounge - sofas'
p53
F0.0
sS'workzone Y'
p54
F0.0
sS'entrance corridor'
p55
F0.0
sS'workzone G'
p56
F0.0
sS'kitchen - coffee'
p57
F0.0
sS'workzone corridor'
p58
F0.0
sg12
F1472147525.6185553
sS'lounge - tv'
p59
F0.0
sS'kitchen - fridge'
p60
F0.0
sg15
I0
sS'bathroom corridor'
p61
F0.0
sS'kitchen'
p62
F0.0
sa(dp63
S'lounge'
p64
F0.0
sS'entrance'
p65
F0.0
sS'workzone T'
p66
F0.0
sS'workzone P'
p67
F0.0
sS'lounge - sofas'
p68
F0.0
sS'workzone Y'
p69
F0.0
sS'entrance corridor'
p70
F0.0
sS'workzone G'
p71
F0.0
sS'kitchen - coffee'
p72
F0.0
sS'workzone corridor'
p73
F0.0
sg12
F1472147527.632222
sS'lounge - tv'
p74
F0.0
sS'kitchen - fridge'
p75
F0.0
sg15
I0
sS'bathroom corridor'
p76
F0.0
sS'kitchen'
p77
F0.0
sa(dp78
S'lounge'
p79
F0.0
sS'entrance'
p80
F0.0
sS'workzone T'
p81
F0.0
sS'workzone P'
p82
F0.0
sS'lounge - sofas'
p83
F0.0
sS'workzone Y'
p84
F0.0
sS'entrance corridor'
p85
F0.0
sS'workzone G'
p86
F0.0
sS'kitchen - coffee'
p87
F0.0
sS'workzone corridor'
p88
F0.0
sg12
F1472147529.6235235
sS'lounge - tv'
p89
F0.0
sS'kitchen - fridge'
p90
F0.0
sg15
I0
sS'bathroom corridor'
p91
F0.0
sS'kitchen'
p92
F0.0
sa(dp93
S'lounge'
p94
F0.0
sS'entrance'
p95
F0.0
sS'workzone T'
p96
F0.0
sS'workzone P'
p97
F0.0
sS'lounge - sofas'
p98
F0.0
sS'workzone Y'
p99
F0.0
sS'entrance corridor'
p100
F0.0
sS'workzone G'
p101
F0.0
sS'kitchen - coffee'
p102
F0.0
sS'workzone corridor'
p103
F0.0
sg12
F1472147531.6167326
sS'lounge - tv'
p104
F0.0
sS'kitchen - fridge'
p105
F0.0
sg15
I0
sS'bathroom corridor'
p106
F0.0
sS'kitchen'
p107
F0.0
sa(dp108
S'lounge'
p109
F0.0
sS'entrance'
p110
F0.0
sS'workzone T'
p111
F0.0
sS'workzone P'
p112
F0.0
sS'lounge - sofas'
p113
F0.0
sS'workzone Y'
p114
F0.0
sS'entrance corridor'
p115
F0.0
sS'workzone G'
p116
F0.0
sS'kitchen - coffee'
p117
F0.0
sS'workzone corridor'
p118
F0.0
sg12
F1472147533.618259
sS'lounge - tv'
p119
F0.0
sS'kitchen - fridge'
p120
F0.0
sg15
I0
sS'bathroom corridor'
p121
F0.0
sS'kitchen'
p122
F0.0
sa(dp123
S'lounge'
p124
F0.0
sS'entrance'
p125
F0.0
sS'workzone T'
p126
F0.0
sS'workzone P'
p127
F0.0
sS'lounge - sofas'
p128
F0.0
sS'workzone Y'
p129
F0.0
sS'entrance corridor'
p130
F0.0
sS'workzone G'
p131
F0.0
sS'kitchen - coffee'
p132
F0.0
sS'workzone corridor'
p133
F0.0
sg12
F1472147535.623358
sS'lounge - tv'
p134
F0.0
sS'kitchen - fridge'
p135
F0.0
sg15
I0
sS'bathroom corridor'
p136
F0.0
sS'kitchen'
p137
F0.0
sa(dp138
S'lounge'
p139
F0.0
sS'entrance'
p140
F0.0
sS'workzone T'
p141
F0.0
sS'workzone P'
p142
F0.0
sS'lounge - sofas'
p143
F0.0
sS'workzone Y'
p144
F0.0
sS'entrance corridor'
p145
F0.0
sS'workzone G'
p146
F0.0
sS'kitchen - coffee'
p147
F0.0
sS'workzone corridor'
p148
F0.0
sg12
F1472147537.618542
sS'lounge - tv'
p149
F0.0
sS'kitchen - fridge'
p150
F0.0
sg15
I0
sS'bathroom corridor'
p151
F0.0
sS'kitchen'
p152
F0.0
sa(dp153
S'lounge'
p154
F0.0
sS'entrance'
p155
F0.0
sS'workzone T'
p156
F0.0
sS'workzone P'
p157
F0.0
sS'lounge - sofas'
p158
F0.0
sS'workzone Y'
p159
F0.0
sS'entrance corridor'
p160
F0.0
sS'workzone G'
p161
F0.0
sS'kitchen - coffee'
p162
F0.0
sS'workzone corridor'
p163
F0.0
sg12
F1472147539.6234133
sS'lounge - tv'
p164
F0.0
sS'kitchen - fridge'
p165
F0.0
sg15
I0
sS'bathroom corridor'
p166
F0.0
sS'kitchen'
p167
F0.0
sa(dp168
S'lounge'
p169
F0.0
sS'entrance'
p170
F0.0
sS'workzone T'
p171
F0.0
sS'workzone P'
p172
F0.0
sS'lounge - sofas'
p173
F0.0
sS'workzone Y'
p174
F0.0
sS'entrance corridor'
p175
F0.0
sS'workzone G'
p176
F0.0
sS'kitchen - coffee'
p177
F0.0
sS'workzone corridor'
p178
F0.0
sg12
F1472147541.6178038
sS'lounge - tv'
p179
F0.0
sS'kitchen - fridge'
p180
F0.0
sg15
I0
sS'bathroom corridor'
p181
F0.0
sS'kitchen'
p182
F0.0
sa(dp183
S'lounge'
p184
F0.0
sS'entrance'
p185
F0.0
sS'workzone T'
p186
F0.0
sS'workzone P'
p187
F0.0
sS'lounge - sofas'
p188
F0.0
sS'workzone Y'
p189
F0.0
sS'entrance corridor'
p190
F0.0
sS'workzone G'
p191
F0.0
sS'kitchen - coffee'
p192
F0.0
sS'workzone corridor'
p193
F0.0
sg12
F1472147543.6222644
sS'lounge - tv'
p194
F0.0
sS'kitchen - fridge'
p195
F0.0
sg15
I0
sS'bathroom corridor'
p196
F0.0
sS'kitchen'
p197
F0.0
sa(dp198
S'lounge'
p199
F0.0
sS'entrance'
p200
F0.0
sS'workzone T'
p201
F0.0
sS'workzone P'
p202
F0.0
sS'lounge - sofas'
p203
F0.0
sS'workzone Y'
p204
F0.0
sS'entrance corridor'
p205
F0.0
sS'workzone G'
p206
F0.0
sS'kitchen - coffee'
p207
F0.0
sS'workzone corridor'
p208
F0.0
sg12
F1472147545.6247478
sS'lounge - tv'
p209
F0.0
sS'kitchen - fridge'
p210
F0.0
sg15
I0
sS'bathroom corridor'
p211
F0.0
sS'kitchen'
p212
F0.0
sa(dp213
S'lounge'
p214
F0.0
sS'entrance'
p215
F0.0
sS'workzone T'
p216
F0.0
sS'workzone P'
p217
F0.0
sS'lounge - sofas'
p218
F0.0
sS'workzone Y'
p219
F0.0
sS'entrance corridor'
p220
F0.0
sS'workzone G'
p221
F0.0
sS'kitchen - coffee'
p222
F0.0
sS'workzone corridor'
p223
F0.0
sg12
F1472147547.6403809
sS'lounge - tv'
p224
F0.0
sS'kitchen - fridge'
p225
F0.0
sg15
I0
sS'bathroom corridor'
p226
F0.0
sS'kitchen'
p227
F0.0
sa(dp228
S'lounge'
p229
F0.0
sS'entrance'
p230
F0.0
sS'workzone T'
p231
F0.0
sS'workzone P'
p232
F0.0
sS'lounge - sofas'
p233
F0.0
sS'workzone Y'
p234
F0.0
sS'entrance corridor'
p235
F0.0
sS'workzone G'
p236
F0.0
sS'kitchen - coffee'
p237
F0.0
sS'workzone corridor'
p238
F0.0
sg12
F1472147549.6228585
sS'lounge - tv'
p239
F0.0
sS'kitchen - fridge'
p240
F0.0
sg15
I0
sS'bathroom corridor'
p241
F0.0
sS'kitchen'
p242
F0.0
sa(dp243
S'lounge'
p244
F0.0
sS'entrance'
p245
F0.0
sS'workzone T'
p246
F0.0
sS'workzone P'
p247
F0.0
sS'lounge - sofas'
p248
F0.0
sS'workzone Y'
p249
F0.0
sS'entrance corridor'
p250
F0.0
sS'workzone G'
p251
F0.0
sS'kitchen - coffee'
p252
F0.0
sS'workzone corridor'
p253
F0.0
sg12
F1472147551.6218655
sS'lounge - tv'
p254
F0.0
sS'kitchen - fridge'
p255
F0.0
sg15
I0
sS'bathroom corridor'
p256
F0.0
sS'kitchen'
p257
F0.0
sa(dp258
S'lounge'
p259
F0.0
sS'entrance'
p260
F0.0
sS'workzone T'
p261
F0.0
sS'workzone P'
p262
F0.0
sS'lounge - sofas'
p263
F0.0
sS'workzone Y'
p264
F0.0
sS'entrance corridor'
p265
F0.0
sS'workzone G'
p266
F0.0
sS'kitchen - coffee'
p267
F0.0
sS'workzone corridor'
p268
F0.0
sg12
F1472147553.6166153
sS'lounge - tv'
p269
F0.0
sS'kitchen - fridge'
p270
F0.0
sg15
I0
sS'bathroom corridor'
p271
F0.0
sS'kitchen'
p272
F0.0
sa(dp273
S'lounge'
p274
F0.0
sS'entrance'
p275
F0.0
sS'workzone T'
p276
F0.0
sS'workzone P'
p277
F0.0
sS'lounge - sofas'
p278
F0.0
sS'workzone Y'
p279
F0.0
sS'entrance corridor'
p280
F0.0
sS'workzone G'
p281
F0.0
sS'kitchen - coffee'
p282
F0.0
sS'workzone corridor'
p283
F0.0
sg12
F1472147555.619261
sS'lounge - tv'
p284
F0.0
sS'kitchen - fridge'
p285
F0.0
sg15
I0
sS'bathroom corridor'
p286
F0.0
sS'kitchen'
p287
F0.0
sa(dp288
S'lounge'
p289
F0.0
sS'entrance'
p290
F0.0
sS'workzone T'
p291
F0.0
sS'workzone P'
p292
F0.0
sS'lounge - sofas'
p293
F0.0
sS'workzone Y'
p294
F0.0
sS'entrance corridor'
p295
F0.0
sS'workzone G'
p296
F0.0
sS'kitchen - coffee'
p297
F0.0
sS'workzone corridor'
p298
F0.0
sg12
F1472147557.6314676
sS'lounge - tv'
p299
F0.0
sS'kitchen - fridge'
p300
F0.0
sg15
I0
sS'bathroom corridor'
p301
F0.0
sS'kitchen'
p302
F0.0
sa(dp303
S'lounge'
p304
F0.0
sS'entrance'
p305
F0.0
sS'workzone T'
p306
F0.0
sS'workzone P'
p307
F0.0
sS'lounge - sofas'
p308
F0.0
sS'workzone Y'
p309
F0.0
sS'entrance corridor'
p310
F0.0
sS'workzone G'
p311
F0.0
sS'kitchen - coffee'
p312
F0.0
sS'workzone corridor'
p313
F0.0
sg12
F1472147559.6169014
sS'lounge - tv'
p314
F0.0
sS'kitchen - fridge'
p315
F0.0
sg15
I0
sS'bathroom corridor'
p316
F0.0
sS'kitchen'
p317
F0.0
sa(dp318
S'lounge'
p319
F0.0
sS'entrance'
p320
F0.0
sS'workzone T'
p321
F0.0
sS'workzone P'
p322
F0.0
sS'lounge - sofas'
p323
F0.0
sS'workzone Y'
p324
F0.0
sS'entrance corridor'
p325
F0.0
sS'workzone G'
p326
F0.0
sS'kitchen - coffee'
p327
F0.0
sS'workzone corridor'
p328
F0.0
sg12
F1472147561.6191654
sS'lounge - tv'
p329
F0.0
sS'kitchen - fridge'
p330
F0.0
sg15
I0
sS'bathroom corridor'
p331
F0.0
sS'kitchen'
p332
F0.0
sa(dp333
S'lounge'
p334
F0.0
sS'entrance'
p335
F0.0
sS'workzone T'
p336
F0.0
sS'workzone P'
p337
F0.0
sS'lounge - sofas'
p338
F0.0
sS'workzone Y'
p339
F0.0
sS'entrance corridor'
p340
F0.0
sS'workzone G'
p341
F0.0
sS'kitchen - coffee'
p342
F0.0
sS'workzone corridor'
p343
F0.0
sg12
F1472147563.6226292
sS'lounge - tv'
p344
F0.0
sS'kitchen - fridge'
p345
F0.0
sg15
I0
sS'bathroom corridor'
p346
F0.0
sS'kitchen'
p347
F0.0
sa(dp348
S'lounge'
p349
F0.0
sS'entrance'
p350
F0.0
sS'workzone T'
p351
F0.0
sS'workzone P'
p352
F0.0
sS'lounge - sofas'
p353
F0.0
sS'workzone Y'
p354
F0.0
sS'entrance corridor'
p355
F0.0
sS'workzone G'
p356
F0.0
sS'kitchen - coffee'
p357
F0.0
sS'workzone corridor'
p358
F0.0
sg12
F1472147565.625112
sS'lounge - tv'
p359
F0.0
sS'kitchen - fridge'
p360
F0.0
sg15
I0
sS'bathroom corridor'
p361
F0.0
sS'kitchen'
p362
F0.0
sa(dp363
S'lounge'
p364
F0.0
sS'entrance'
p365
F0.0
sS'workzone T'
p366
F0.0
sS'workzone P'
p367
F0.0
sS'lounge - sofas'
p368
F0.0
sS'workzone Y'
p369
F0.0
sS'entrance corridor'
p370
F0.0
sS'workzone G'
p371
F0.0
sS'kitchen - coffee'
p372
F0.0
sS'workzone corridor'
p373
F0.0
sg12
F1472147567.6175518
sS'lounge - tv'
p374
F0.0
sS'kitchen - fridge'
p375
F0.0
sg15
I0
sS'bathroom corridor'
p376
F0.0
sS'kitchen'
p377
F0.0
sa(dp378
S'lounge'
p379
F0.0
sS'entrance'
p380
F0.0
sS'workzone T'
p381
F0.0
sS'workzone P'
p382
F0.0
sS'lounge - sofas'
p383
F0.0
sS'workzone Y'
p384
F0.0
sS'entrance corridor'
p385
F0.0
sS'workzone G'
p386
F0.0
sS'kitchen - coffee'
p387
F0.0
sS'workzone corridor'
p388
F0.0
sg12
F1472147569.623013
sS'lounge - tv'
p389
F0.0
sS'kitchen - fridge'
p390
F0.0
sg15
I0
sS'bathroom corridor'
p391
F0.0
sS'kitchen'
p392
F0.0
sa(dp393
S'lounge'
p394
F0.0
sS'entrance'
p395
F0.0
sS'workzone T'
p396
F0.0
sS'workzone P'
p397
F0.0
sS'lounge - sofas'
p398
F0.0
sS'workzone Y'
p399
F0.0
sS'entrance corridor'
p400
F0.0
sS'workzone G'
p401
F0.0
sS'kitchen - coffee'
p402
F0.0
sS'workzone corridor'
p403
F0.0
sg12
F1472147571.6245124
sS'lounge - tv'
p404
F0.0
sS'kitchen - fridge'
p405
F0.0
sg15
I0
sS'bathroom corridor'
p406
F0.0
sS'kitchen'
p407
F0.0
sa(dp408
S'lounge'
p409
F0.0
sS'entrance'
p410
F0.0
sS'workzone T'
p411
F0.0
sS'workzone P'
p412
F0.0
sS'lounge - sofas'
p413
F0.0
sS'workzone Y'
p414
F0.0
sS'entrance corridor'
p415
F0.0
sS'workzone G'
p416
F0.0
sS'kitchen - coffee'
p417
F0.0
sS'workzone corridor'
p418
F0.0
sg12
F1472147573.6201222
sS'lounge - tv'
p419
F0.0
sS'kitchen - fridge'
p420
F0.0
sg15
I0
sS'bathroom corridor'
p421
F0.0
sS'kitchen'
p422
F0.0
sa(dp423
S'lounge'
p424
F0.0
sS'entrance'
p425
F0.0
sS'workzone T'
p426
F0.0
sS'workzone P'
p427
F0.0
sS'lounge - sofas'
p428
F0.0
sS'workzone Y'
p429
F0.0
sS'entrance corridor'
p430
F0.0
sS'workzone G'
p431
F0.0
sS'kitchen - coffee'
p432
F0.0
sS'workzone corridor'
p433
F0.0
sg12
F1472147575.6260874
sS'lounge - tv'
p434
F0.0
sS'kitchen - fridge'
p435
F0.0
sg15
I0
sS'bathroom corridor'
p436
F0.0
sS'kitchen'
p437
F0.0
sa(dp438
S'lounge'
p439
F0.0
sS'entrance'
p440
F0.0
sS'workzone T'
p441
F0.0
sS'workzone P'
p442
F0.0
sS'lounge - sofas'
p443
F0.0
sS'workzone Y'
p444
F0.0
sS'entrance corridor'
p445
F0.0
sS'workzone G'
p446
F0.0
sS'kitchen - coffee'
p447
F0.0
sS'workzone corridor'
p448
F0.0
sg12
F1472147577.640191
sS'lounge - tv'
p449
F0.0
sS'kitchen - fridge'
p450
F0.0
sg15
I0
sS'bathroom corridor'
p451
F0.0
sS'kitchen'
p452
F0.0
sa(dp453
S'lounge'
p454
F0.0
sS'entrance'
p455
F0.0
sS'workzone T'
p456
F0.0
sS'workzone P'
p457
F0.0
sS'lounge - sofas'
p458
F0.0
sS'workzone Y'
p459
F0.0
sS'entrance corridor'
p460
F0.0
sS'workzone G'
p461
F0.0
sS'kitchen - coffee'
p462
F0.0
sS'workzone corridor'
p463
F0.0
sg12
F1472147579.6187747
sS'lounge - tv'
p464
F0.0
sS'kitchen - fridge'
p465
F0.0
sg15
I0
sS'bathroom corridor'
p466
F0.0
sS'kitchen'
p467
F0.0
sa(dp468
S'lounge'
p469
F0.0
sS'entrance'
p470
F0.0
sS'workzone T'
p471
F0.0
sS'workzone P'
p472
F0.0
sS'lounge - sofas'
p473
F0.0
sS'workzone Y'
p474
F0.0
sS'entrance corridor'
p475
F0.0
sS'workzone G'
p476
F0.0
sS'kitchen - coffee'
p477
F0.0
sS'workzone corridor'
p478
F0.0
sg12
F1472147581.621786
sS'lounge - tv'
p479
F0.0
sS'kitchen - fridge'
p480
F0.0
sg15
I0
sS'bathroom corridor'
p481
F0.0
sS'kitchen'
p482
F0.0
sa(dp483
S'lounge'
p484
F0.0
sS'entrance'
p485
F0.0
sS'workzone T'
p486
F0.0
sS'workzone P'
p487
F0.0
sS'lounge - sofas'
p488
F0.0
sS'workzone Y'
p489
F0.0
sS'entrance corridor'
p490
F0.0
sS'workzone G'
p491
F0.0
sS'kitchen - coffee'
p492
F0.0
sS'workzone corridor'
p493
F0.0
sg12
F1472147583.6250815
sS'lounge - tv'
p494
F0.0
sS'kitchen - fridge'
p495
F0.0
sg15
I0
sS'bathroom corridor'
p496
F0.0
sS'kitchen'
p497
F0.0
sa(dp498
S'lounge'
p499
F0.0
sS'entrance'
p500
F0.0
sS'workzone T'
p501
F0.0
sS'workzone P'
p502
F0.0
sS'lounge - sofas'
p503
F0.0
sS'workzone Y'
p504
F0.0
sS'entrance corridor'
p505
F0.0
sS'workzone G'
p506
F0.0
sS'kitchen - coffee'
p507
F0.0
sS'workzone corridor'
p508
F0.0
sg12
F1472147585.6174762
sS'lounge - tv'
p509
F0.0
sS'kitchen - fridge'
p510
F0.0
sg15
I0
sS'bathroom corridor'
p511
F0.0
sS'kitchen'
p512
F0.0
sa(dp513
S'lounge'
p514
F0.0
sS'entrance'
p515
F0.0
sS'workzone T'
p516
F0.0
sS'workzone P'
p517
F0.0
sS'lounge - sofas'
p518
F0.0
sS'workzone Y'
p519
F0.0
sS'entrance corridor'
p520
F0.0
sS'workzone G'
p521
F0.0
sS'kitchen - coffee'
p522
F0.0
sS'workzone corridor'
p523
F0.0
sg12
F1472147587.6343787
sS'lounge - tv'
p524
F0.0
sS'kitchen - fridge'
p525
F0.0
sg15
I0
sS'bathroom corridor'
p526
F0.0
sS'kitchen'
p527
F0.0
sa(dp528
S'lounge'
p529
F0.0
sS'entrance'
p530
F0.0
sS'workzone T'
p531
F0.0
sS'workzone P'
p532
F0.0
sS'lounge - sofas'
p533
F0.0
sS'workzone Y'
p534
F0.0
sS'entrance corridor'
p535
F0.0
sS'workzone G'
p536
F0.0
sS'kitchen - coffee'
p537
F0.0
sS'workzone corridor'
p538
F0.0
sg12
F1472147589.618273
sS'lounge - tv'
p539
F0.0
sS'kitchen - fridge'
p540
F0.0
sg15
I0
sS'bathroom corridor'
p541
F0.0
sS'kitchen'
p542
F0.0
sa(dp543
S'lounge'
p544
F0.0
sS'entrance'
p545
F0.0
sS'workzone T'
p546
F0.0
sS'workzone P'
p547
F0.0
sS'lounge - sofas'
p548
F0.0
sS'workzone Y'
p549
F0.0
sS'entrance corridor'
p550
F0.0
sS'workzone G'
p551
F0.0
sS'kitchen - coffee'
p552
F0.0
sS'workzone corridor'
p553
F0.0
sg12
F1472147591.6231968
sS'lounge - tv'
p554
F0.0
sS'kitchen - fridge'
p555
F0.0
sg15
I0
sS'bathroom corridor'
p556
F0.0
sS'kitchen'
p557
F0.0
sa(dp558
S'lounge'
p559
F0.0
sS'entrance'
p560
F0.0
sS'workzone T'
p561
F0.0
sS'workzone P'
p562
F0.0
sS'lounge - sofas'
p563
F0.0
sS'workzone Y'
p564
F0.0
sS'entrance corridor'
p565
F0.0
sS'workzone G'
p566
F0.0
sS'kitchen - coffee'
p567
F0.0
sS'workzone corridor'
p568
F0.0
sg12
F1472147593.6168268
sS'lounge - tv'
p569
F0.0
sS'kitchen - fridge'
p570
F0.0
sg15
I0
sS'bathroom corridor'
p571
F0.0
sS'kitchen'
p572
F0.0
sa(dp573
S'lounge'
p574
F0.0
sS'entrance'
p575
F0.0
sS'workzone T'
p576
F0.0
sS'workzone P'
p577
F0.0
sS'lounge - sofas'
p578
F0.0
sS'workzone Y'
p579
F0.0
sS'entrance corridor'
p580
F0.0
sS'workzone G'
p581
F0.0
sS'kitchen - coffee'
p582
F0.0
sS'workzone corridor'
p583
F0.0
sg12
F1472147595.623439
sS'lounge - tv'
p584
F0.0
sS'kitchen - fridge'
p585
F0.0
sg15
I0
sS'bathroom corridor'
p586
F0.0
sS'kitchen'
p587
F0.0
sa(dp588
S'lounge'
p589
F0.0
sS'entrance'
p590
F0.0
sS'workzone T'
p591
F0.0
sS'workzone P'
p592
F0.0
sS'lounge - sofas'
p593
F0.0
sS'workzone Y'
p594
F0.0
sS'entrance corridor'
p595
F0.0
sS'workzone G'
p596
F0.0
sS'kitchen - coffee'
p597
F0.0
sS'workzone corridor'
p598
F0.0
sg12
F1472147597.6174414
sS'lounge - tv'
p599
F0.0
sS'kitchen - fridge'
p600
F0.0
sg15
I0
sS'bathroom corridor'
p601
F0.0
sS'kitchen'
p602
F0.0
sa(dp603
S'lounge'
p604
F0.0
sS'entrance'
p605
F0.0
sS'workzone T'
p606
F0.0
sS'workzone P'
p607
F0.0
sS'lounge - sofas'
p608
F0.0
sS'workzone Y'
p609
F0.0
sS'entrance corridor'
p610
F0.0
sS'workzone G'
p611
F0.0
sS'kitchen - coffee'
p612
F0.0
sS'workzone corridor'
p613
F0.0
sg12
F1472147599.6188278
sS'lounge - tv'
p614
F0.0
sS'kitchen - fridge'
p615
F0.0
sg15
I0
sS'bathroom corridor'
p616
F0.0
sS'kitchen'
p617
F0.0
sa(dp618
S'lounge'
p619
F0.0
sS'entrance'
p620
F0.0
sS'workzone T'
p621
F0.0
sS'workzone P'
p622
F0.0
sS'lounge - sofas'
p623
F0.0
sS'workzone Y'
p624
F0.0
sS'entrance corridor'
p625
F0.0
sS'workzone G'
p626
F0.0
sS'kitchen - coffee'
p627
F0.0
sS'workzone corridor'
p628
F0.0
sg12
F1472147601.622637
sS'lounge - tv'
p629
F0.0
sS'kitchen - fridge'
p630
F0.0
sg15
I0
sS'bathroom corridor'
p631
F0.0
sS'kitchen'
p632
F0.0
sa(dp633
S'lounge'
p634
F0.0
sS'entrance'
p635
F0.0
sS'workzone T'
p636
F0.0
sS'workzone P'
p637
F0.0
sS'lounge - sofas'
p638
F0.0
sS'workzone Y'
p639
F0.0
sS'entrance corridor'
p640
F0.0
sS'workzone G'
p641
F0.0
sS'kitchen - coffee'
p642
F0.0
sS'workzone corridor'
p643
F0.0
sg12
F1472147603.6245708
sS'lounge - tv'
p644
F0.0
sS'kitchen - fridge'
p645
F0.0
sg15
I0
sS'bathroom corridor'
p646
F0.0
sS'kitchen'
p647
F0.0
sa(dp648
S'lounge'
p649
F0.0
sS'entrance'
p650
F0.0
sS'workzone T'
p651
F0.0
sS'workzone P'
p652
F0.0
sS'lounge - sofas'
p653
F0.0
sS'workzone Y'
p654
F0.0
sS'entrance corridor'
p655
F0.0
sS'workzone G'
p656
F0.0
sS'kitchen - coffee'
p657
F0.0
sS'workzone corridor'
p658
F0.0
sg12
F1472147605.6171453
sS'lounge - tv'
p659
F0.0
sS'kitchen - fridge'
p660
F0.0
sg15
I0
sS'bathroom corridor'
p661
F0.0
sS'kitchen'
p662
F0.0
sa(dp663
S'lounge'
p664
F0.0
sS'entrance'
p665
F0.0
sS'workzone T'
p666
F0.0
sS'workzone P'
p667
F0.0
sS'lounge - sofas'
p668
F0.0
sS'workzone Y'
p669
F0.0
sS'entrance corridor'
p670
F0.0
sS'workzone G'
p671
F0.0
sS'kitchen - coffee'
p672
F0.0
sS'workzone corridor'
p673
F0.0
sg12
F1472147607.6310496
sS'lounge - tv'
p674
F0.0
sS'kitchen - fridge'
p675
F0.0
sg15
I0
sS'bathroom corridor'
p676
F0.0
sS'kitchen'
p677
F0.0
sa(dp678
S'lounge'
p679
F0.0
sS'entrance'
p680
F0.0
sS'workzone T'
p681
F0.0
sS'workzone P'
p682
F0.0
sS'lounge - sofas'
p683
F0.0
sS'workzone Y'
p684
F0.0
sS'entrance corridor'
p685
F0.0
sS'workzone G'
p686
F0.0
sS'kitchen - coffee'
p687
F0.0
sS'workzone corridor'
p688
F0.0
sg12
F1472147609.6232123
sS'lounge - tv'
p689
F0.0
sS'kitchen - fridge'
p690
F0.0
sg15
I0
sS'bathroom corridor'
p691
F0.0
sS'kitchen'
p692
F0.0
sa(dp693
S'lounge'
p694
F0.0
sS'entrance'
p695
F0.0
sS'workzone T'
p696
F0.0
sS'workzone P'
p697
F0.0
sS'lounge - sofas'
p698
F0.0
sS'workzone Y'
p699
F0.0
sS'entrance corridor'
p700
F0.0
sS'workzone G'
p701
F0.0
sS'kitchen - coffee'
p702
F0.0
sS'workzone corridor'
p703
F0.0
sg12
F1472147611.6184268
sS'lounge - tv'
p704
F0.0
sS'kitchen - fridge'
p705
F0.0
sg15
I0
sS'bathroom corridor'
p706
F0.0
sS'kitchen'
p707
F0.0
sa(dp708
S'lounge'
p709
F0.0
sS'entrance'
p710
F0.0
sS'workzone T'
p711
F0.0
sS'workzone P'
p712
F0.0
sS'lounge - sofas'
p713
F0.0
sS'workzone Y'
p714
F0.0
sS'entrance corridor'
p715
F0.0
sS'workzone G'
p716
F0.0
sS'kitchen - coffee'
p717
F0.0
sS'workzone corridor'
p718
F0.0
sg12
F1472147613.6200984
sS'lounge - tv'
p719
F0.0
sS'kitchen - fridge'
p720
F0.0
sg15
I0
sS'bathroom corridor'
p721
F0.0
sS'kitchen'
p722
F0.0
sa(dp723
S'lounge'
p724
F0.0
sS'entrance'
p725
F0.0
sS'workzone T'
p726
F0.0
sS'workzone P'
p727
F0.0
sS'lounge - sofas'
p728
F0.0
sS'workzone Y'
p729
F0.0
sS'entrance corridor'
p730
F0.0
sS'workzone G'
p731
F0.0
sS'kitchen - coffee'
p732
F0.0
sS'workzone corridor'
p733
F0.0
sg12
F1472147615.6217127
sS'lounge - tv'
p734
F0.0
sS'kitchen - fridge'
p735
F0.0
sg15
I0
sS'bathroom corridor'
p736
F0.0
sS'kitchen'
p737
F0.0
sa(dp738
S'lounge'
p739
F0.0
sS'entrance'
p740
F0.0
sS'workzone T'
p741
F0.0
sS'workzone P'
p742
F0.0
sS'lounge - sofas'
p743
F0.0
sS'workzone Y'
p744
F0.0
sS'entrance corridor'
p745
F0.0
sS'workzone G'
p746
F0.0
sS'kitchen - coffee'
p747
F0.0
sS'workzone corridor'
p748
F0.0
sg12
F1472147617.633512
sS'lounge - tv'
p749
F0.0
sS'kitchen - fridge'
p750
F0.0
sg15
I0
sS'bathroom corridor'
p751
F0.0
sS'kitchen'
p752
F0.0
sa(dp753
S'lounge'
p754
F0.0
sS'entrance'
p755
F0.0
sS'workzone T'
p756
F0.0
sS'workzone P'
p757
F0.0
sS'lounge - sofas'
p758
F0.0
sS'workzone Y'
p759
F0.0
sS'entrance corridor'
p760
F0.0
sS'workzone G'
p761
F0.0
sS'kitchen - coffee'
p762
F0.0
sS'workzone corridor'
p763
F0.0
sg12
F1472147619.6249857
sS'lounge - tv'
p764
F0.0
sS'kitchen - fridge'
p765
F0.0
sg15
I0
sS'bathroom corridor'
p766
F0.0
sS'kitchen'
p767
F0.0
sa(dp768
S'lounge'
p769
F0.0
sS'entrance'
p770
F0.0
sS'workzone T'
p771
F0.0
sS'workzone P'
p772
F0.0
sS'lounge - sofas'
p773
F0.0
sS'workzone Y'
p774
F0.0
sS'entrance corridor'
p775
F0.0
sS'workzone G'
p776
F0.0
sS'kitchen - coffee'
p777
F0.0
sS'workzone corridor'
p778
F0.0
sg12
F1472147621.622702
sS'lounge - tv'
p779
F0.0
sS'kitchen - fridge'
p780
F0.0
sg15
I0
sS'bathroom corridor'
p781
F0.0
sS'kitchen'
p782
F0.0
sa(dp783
S'lounge'
p784
F0.0
sS'entrance'
p785
F0.0
sS'workzone T'
p786
F0.0
sS'workzone P'
p787
F0.0
sS'lounge - sofas'
p788
F0.0
sS'workzone Y'
p789
F0.0
sS'entrance corridor'
p790
F0.0
sS'workzone G'
p791
F0.0
sS'kitchen - coffee'
p792
F0.0
sS'workzone corridor'
p793
F0.0
sg12
F1472147623.62377
sS'lounge - tv'
p794
F0.0
sS'kitchen - fridge'
p795
F0.0
sg15
I0
sS'bathroom corridor'
p796
F0.0
sS'kitchen'
p797
F0.0
sa(dp798
S'lounge'
p799
F0.0
sS'entrance'
p800
F0.0
sS'workzone T'
p801
F0.0
sS'workzone P'
p802
F0.0
sS'lounge - sofas'
p803
F0.0
sS'workzone Y'
p804
F0.0
sS'entrance corridor'
p805
F0.0
sS'workzone G'
p806
F0.0
sS'kitchen - coffee'
p807
F0.0
sS'workzone corridor'
p808
F0.0
sg12
F1472147625.6252384
sS'lounge - tv'
p809
F0.0
sS'kitchen - fridge'
p810
F0.0
sg15
I0
sS'bathroom corridor'
p811
F0.0
sS'kitchen'
p812
F0.0
sa(dp813
S'lounge'
p814
F0.0
sS'entrance'
p815
F0.0
sS'workzone T'
p816
F0.0
sS'workzone P'
p817
F0.0
sS'lounge - sofas'
p818
F0.0
sS'workzone Y'
p819
F0.0
sS'entrance corridor'
p820
F0.0
sS'workzone G'
p821
F0.0
sS'kitchen - coffee'
p822
F0.0
sS'workzone corridor'
p823
F0.0
sg12
F1472147627.6301847
sS'lounge - tv'
p824
F0.0
sS'kitchen - fridge'
p825
F0.0
sg15
I0
sS'bathroom corridor'
p826
F0.0
sS'kitchen'
p827
F0.0
sa(dp828
S'lounge'
p829
F0.0
sS'entrance'
p830
F0.0
sS'workzone T'
p831
F0.0
sS'workzone P'
p832
F0.0
sS'lounge - sofas'
p833
F0.0
sS'workzone Y'
p834
F0.0
sS'entrance corridor'
p835
F0.0
sS'workzone G'
p836
F0.0
sS'kitchen - coffee'
p837
F0.0
sS'workzone corridor'
p838
F0.0
sg12
F1472147629.6233256
sS'lounge - tv'
p839
F0.0
sS'kitchen - fridge'
p840
F0.0
sg15
I0
sS'bathroom corridor'
p841
F0.0
sS'kitchen'
p842
F0.0
sa(dp843
S'lounge'
p844
F0.0
sS'entrance'
p845
F0.0
sS'workzone T'
p846
F0.0
sS'workzone P'
p847
F0.0
sS'lounge - sofas'
p848
F0.0
sS'workzone Y'
p849
F0.0
sS'entrance corridor'
p850
F0.0
sS'workzone G'
p851
F0.0
sS'kitchen - coffee'
p852
F0.0
sS'workzone corridor'
p853
F0.0
sg12
F1472147631.625067
sS'lounge - tv'
p854
F0.0
sS'kitchen - fridge'
p855
F0.0
sg15
I0
sS'bathroom corridor'
p856
F0.0
sS'kitchen'
p857
F0.0
sa(dp858
S'lounge'
p859
F0.0
sS'entrance'
p860
F0.0
sS'workzone T'
p861
F0.0
sS'workzone P'
p862
F0.0
sS'lounge - sofas'
p863
F0.0
sS'workzone Y'
p864
F0.0
sS'entrance corridor'
p865
F0.0
sS'workzone G'
p866
F0.0
sS'kitchen - coffee'
p867
F0.0
sS'workzone corridor'
p868
F0.0
sg12
F1472147633.6174228
sS'lounge - tv'
p869
F0.0
sS'kitchen - fridge'
p870
F0.0
sg15
I0
sS'bathroom corridor'
p871
F0.0
sS'kitchen'
p872
F0.0
sa(dp873
S'lounge'
p874
F0.0
sS'entrance'
p875
F0.0
sS'workzone T'
p876
F0.0
sS'workzone P'
p877
F0.0
sS'lounge - sofas'
p878
F0.0
sS'workzone Y'
p879
F0.0
sS'entrance corridor'
p880
F0.0
sS'workzone G'
p881
F0.0
sS'kitchen - coffee'
p882
F0.0
sS'workzone corridor'
p883
F0.0
sg12
F1472147635.6218271
sS'lounge - tv'
p884
F0.0
sS'kitchen - fridge'
p885
F0.0
sg15
I0
sS'bathroom corridor'
p886
F0.0
sS'kitchen'
p887
F0.0
sa(dp888
S'lounge'
p889
F0.0
sS'entrance'
p890
F0.0
sS'workzone T'
p891
F0.0
sS'workzone P'
p892
F0.0
sS'lounge - sofas'
p893
F0.0
sS'workzone Y'
p894
F0.0
sS'entrance corridor'
p895
F0.0
sS'workzone G'
p896
F0.0
sS'kitchen - coffee'
p897
F0.0
sS'workzone corridor'
p898
F0.0
sg12
F1472147637.634065
sS'lounge - tv'
p899
F0.0
sS'kitchen - fridge'
p900
F0.0
sg15
I0
sS'bathroom corridor'
p901
F0.0
sS'kitchen'
p902
F0.0
sa(dp903
S'lounge'
p904
F0.0
sS'entrance'
p905
F0.0
sS'workzone T'
p906
F0.0
sS'workzone P'
p907
F0.0
sS'lounge - sofas'
p908
F0.0
sS'workzone Y'
p909
F0.0
sS'entrance corridor'
p910
F0.0
sS'workzone G'
p911
F0.0
sS'kitchen - coffee'
p912
F0.0
sS'workzone corridor'
p913
F0.0
sg12
F1472147639.6183403
sS'lounge - tv'
p914
F0.0
sS'kitchen - fridge'
p915
F0.0
sg15
I0
sS'bathroom corridor'
p916
F0.0
sS'kitchen'
p917
F0.0
sa(dp918
S'lounge'
p919
F0.0
sS'entrance'
p920
F0.0
sS'workzone T'
p921
F0.0
sS'workzone P'
p922
F0.0
sS'lounge - sofas'
p923
F0.0
sS'workzone Y'
p924
F0.0
sS'entrance corridor'
p925
F0.0
sS'workzone G'
p926
F0.0
sS'kitchen - coffee'
p927
F0.0
sS'workzone corridor'
p928
F0.0
sg12
F1472147641.621337
sS'lounge - tv'
p929
F0.0
sS'kitchen - fridge'
p930
F0.0
sg15
I0
sS'bathroom corridor'
p931
F0.0
sS'kitchen'
p932
F0.0
sa(dp933
S'lounge'
p934
F0.0
sS'entrance'
p935
F0.0
sS'workzone T'
p936
F0.0
sS'workzone P'
p937
F0.0
sS'lounge - sofas'
p938
F0.0
sS'workzone Y'
p939
F0.0
sS'entrance corridor'
p940
F0.0
sS'workzone G'
p941
F0.0
sS'kitchen - coffee'
p942
F0.0
sS'workzone corridor'
p943
F0.0
sg12
F1472147643.6191154
sS'lounge - tv'
p944
F0.0
sS'kitchen - fridge'
p945
F0.0
sg15
I0
sS'bathroom corridor'
p946
F0.0
sS'kitchen'
p947
F0.0
sa(dp948
S'lounge'
p949
F0.0
sS'entrance'
p950
F0.0
sS'workzone T'
p951
F0.0
sS'workzone P'
p952
F0.0
sS'lounge - sofas'
p953
F0.0
sS'workzone Y'
p954
F0.0
sS'entrance corridor'
p955
F0.0
sS'workzone G'
p956
F0.0
sS'kitchen - coffee'
p957
F0.0
sS'workzone corridor'
p958
F0.0
sg12
F1472147645.6211047
sS'lounge - tv'
p959
F0.0
sS'kitchen - fridge'
p960
F0.0
sg15
I0
sS'bathroom corridor'
p961
F0.0
sS'kitchen'
p962
F0.0
sa(dp963
S'lounge'
p964
F0.0
sS'entrance'
p965
F0.0
sS'workzone T'
p966
F0.0
sS'workzone P'
p967
F0.0
sS'lounge - sofas'
p968
F0.0
sS'workzone Y'
p969
F0.0
sS'entrance corridor'
p970
F0.0
sS'workzone G'
p971
F0.0
sS'kitchen - coffee'
p972
F0.0
sS'workzone corridor'
p973
F0.0
sg12
F1472147647.6441483
sS'lounge - tv'
p974
F0.0
sS'kitchen - fridge'
p975
F0.0
sg15
I0
sS'bathroom corridor'
p976
F0.0
sS'kitchen'
p977
F0.0
sa(dp978
S'lounge'
p979
F0.0
sS'entrance'
p980
F0.0
sS'workzone T'
p981
F0.0
sS'workzone P'
p982
F0.0
sS'lounge - sofas'
p983
F0.0
sS'workzone Y'
p984
F0.0
sS'entrance corridor'
p985
F0.0
sS'workzone G'
p986
F0.0
sS'kitchen - coffee'
p987
F0.0
sS'workzone corridor'
p988
F0.0
sg12
F1472147649.6176074
sS'lounge - tv'
p989
F0.0
sS'kitchen - fridge'
p990
F0.0
sg15
I0
sS'bathroom corridor'
p991
F0.0
sS'kitchen'
p992
F0.0
sa(dp993
S'lounge'
p994
F0.0
sS'entrance'
p995
F0.0
sS'workzone T'
p996
F0.0
sS'workzone P'
p997
F0.0
sS'lounge - sofas'
p998
F0.0
sS'workzone Y'
p999
F0.0
sS'entrance corridor'
p1000
F0.0
sS'workzone G'
p1001
F0.0
sS'kitchen - coffee'
p1002
F0.0
sS'workzone corridor'
p1003
F0.0
sg12
F1472147651.6200032
sS'lounge - tv'
p1004
F0.0
sS'kitchen - fridge'
p1005
F0.0
sg15
I0
sS'bathroom corridor'
p1006
F0.0
sS'kitchen'
p1007
F0.0
sa(dp1008
S'lounge'
p1009
F0.0
sS'entrance'
p1010
F0.0
sS'workzone T'
p1011
F0.0
sS'workzone P'
p1012
F0.0
sS'lounge - sofas'
p1013
F0.0
sS'workzone Y'
p1014
F0.0
sS'entrance corridor'
p1015
F0.0
sS'workzone G'
p1016
F0.0
sS'kitchen - coffee'
p1017
F0.0
sS'workzone corridor'
p1018
F0.0
sg12
F1472147653.6244683
sS'lounge - tv'
p1019
F0.0
sS'kitchen - fridge'
p1020
F0.0
sg15
I0
sS'bathroom corridor'
p1021
F0.0
sS'kitchen'
p1022
F0.0
sa(dp1023
S'lounge'
p1024
F0.0
sS'entrance'
p1025
F0.0
sS'workzone T'
p1026
F0.0
sS'workzone P'
p1027
F0.0
sS'lounge - sofas'
p1028
F0.0
sS'workzone Y'
p1029
F0.0
sS'entrance corridor'
p1030
F0.0
sS'workzone G'
p1031
F0.0
sS'kitchen - coffee'
p1032
F0.0
sS'workzone corridor'
p1033
F0.0
sg12
F1472147655.6193469
sS'lounge - tv'
p1034
F0.0
sS'kitchen - fridge'
p1035
F0.0
sg15
I0
sS'bathroom corridor'
p1036
F0.0
sS'kitchen'
p1037
F0.0
sa(dp1038
S'lounge'
p1039
F0.0
sS'entrance'
p1040
F0.0
sS'workzone T'
p1041
F0.0
sS'workzone P'
p1042
F0.0
sS'lounge - sofas'
p1043
F0.0
sS'workzone Y'
p1044
F0.0
sS'entrance corridor'
p1045
F0.0
sS'workzone G'
p1046
F0.0
sS'kitchen - coffee'
p1047
F0.0
sS'workzone corridor'
p1048
F0.0
sg12
F1472147657.6333876
sS'lounge - tv'
p1049
F0.0
sS'kitchen - fridge'
p1050
F0.0
sg15
I0
sS'bathroom corridor'
p1051
F0.0
sS'kitchen'
p1052
F0.0
sa(dp1053
S'lounge'
p1054
F0.0
sS'entrance'
p1055
F0.0
sS'workzone T'
p1056
F0.0
sS'workzone P'
p1057
F0.0
sS'lounge - sofas'
p1058
F0.0
sS'workzone Y'
p1059
F0.0
sS'entrance corridor'
p1060
F0.0
sS'workzone G'
p1061
F0.0
sS'kitchen - coffee'
p1062
F0.0
sS'workzone corridor'
p1063
F0.0
sg12
F1472147659.6176102
sS'lounge - tv'
p1064
F0.0
sS'kitchen - fridge'
p1065
F0.0
sg15
I0
sS'bathroom corridor'
p1066
F0.0
sS'kitchen'
p1067
F0.0
sa(dp1068
S'lounge'
p1069
F0.0
sS'entrance'
p1070
F0.0
sS'workzone T'
p1071
F0.0
sS'workzone P'
p1072
F0.0
sS'lounge - sofas'
p1073
F0.0
sS'workzone Y'
p1074
F0.0
sS'entrance corridor'
p1075
F0.0
sS'workzone G'
p1076
F0.0
sS'kitchen - coffee'
p1077
F0.0
sS'workzone corridor'
p1078
F0.0
sg12
F1472147661.6222606
sS'lounge - tv'
p1079
F0.0
sS'kitchen - fridge'
p1080
F0.0
sg15
I0
sS'bathroom corridor'
p1081
F0.0
sS'kitchen'
p1082
F0.0
sa(dp1083
S'lounge'
p1084
F0.0
sS'entrance'
p1085
F0.0
sS'workzone T'
p1086
F0.0
sS'workzone P'
p1087
F0.0
sS'lounge - sofas'
p1088
F0.0
sS'workzone Y'
p1089
F0.0
sS'entrance corridor'
p1090
F0.0
sS'workzone G'
p1091
F0.0
sS'kitchen - coffee'
p1092
F0.0
sS'workzone corridor'
p1093
F0.0
sg12
F1472147663.617559
sS'lounge - tv'
p1094
F0.0
sS'kitchen - fridge'
p1095
F0.0
sg15
I0
sS'bathroom corridor'
p1096
F0.0
sS'kitchen'
p1097
F0.0
sa(dp1098
S'lounge'
p1099
F0.0
sS'entrance'
p1100
F0.0
sS'workzone T'
p1101
F0.0
sS'workzone P'
p1102
F0.0
sS'lounge - sofas'
p1103
F0.0
sS'workzone Y'
p1104
F0.0
sS'entrance corridor'
p1105
F0.0
sS'workzone G'
p1106
F0.0
sS'kitchen - coffee'
p1107
F0.0
sS'workzone corridor'
p1108
F0.0
sg12
F1472147665.6219032
sS'lounge - tv'
p1109
F0.0
sS'kitchen - fridge'
p1110
F0.0
sg15
I0
sS'bathroom corridor'
p1111
F0.0
sS'kitchen'
p1112
F0.0
sa(dp1113
S'lounge'
p1114
F0.0
sS'entrance'
p1115
F0.0
sS'workzone T'
p1116
F0.0
sS'workzone P'
p1117
F0.0
sS'lounge - sofas'
p1118
F0.0
sS'workzone Y'
p1119
F0.0
sS'entrance corridor'
p1120
F0.0
sS'workzone G'
p1121
F0.0
sS'kitchen - coffee'
p1122
F0.0
sS'workzone corridor'
p1123
F0.0
sg12
F1472147667.6363354
sS'lounge - tv'
p1124
F0.0
sS'kitchen - fridge'
p1125
F0.0
sg15
I0
sS'bathroom corridor'
p1126
F0.0
sS'kitchen'
p1127
F0.0
sa(dp1128
S'lounge'
p1129
F0.0
sS'entrance'
p1130
F0.0
sS'workzone T'
p1131
F0.0
sS'workzone P'
p1132
F0.0
sS'lounge - sofas'
p1133
F0.0
sS'workzone Y'
p1134
F0.0
sS'entrance corridor'
p1135
F0.0
sS'workzone G'
p1136
F0.0
sS'kitchen - coffee'
p1137
F0.0
sS'workzone corridor'
p1138
F0.0
sg12
F1472147669.6176875
sS'lounge - tv'
p1139
F0.0
sS'kitchen - fridge'
p1140
F0.0
sg15
I0
sS'bathroom corridor'
p1141
F0.0
sS'kitchen'
p1142
F0.0
sa(dp1143
S'lounge'
p1144
F0.0
sS'entrance'
p1145
F0.0
sS'workzone T'
p1146
F0.0
sS'workzone P'
p1147
F0.0
sS'lounge - sofas'
p1148
F0.0
sS'workzone Y'
p1149
F0.0
sS'entrance corridor'
p1150
F0.0
sS'workzone G'
p1151
F0.0
sS'kitchen - coffee'
p1152
F0.0
sS'workzone corridor'
p1153
F0.0
sg12
F1472147671.620477
sS'lounge - tv'
p1154
F0.0
sS'kitchen - fridge'
p1155
F0.0
sg15
I0
sS'bathroom corridor'
p1156
F0.0
sS'kitchen'
p1157
F0.0
sa(dp1158
S'lounge'
p1159
F0.0
sS'entrance'
p1160
F0.0
sS'workzone T'
p1161
F0.0
sS'workzone P'
p1162
F0.0
sS'lounge - sofas'
p1163
F0.0
sS'workzone Y'
p1164
F0.0
sS'entrance corridor'
p1165
F0.0
sS'workzone G'
p1166
F0.0
sS'kitchen - coffee'
p1167
F0.0
sS'workzone corridor'
p1168
F0.0
sg12
F1472147673.6228366
sS'lounge - tv'
p1169
F0.0
sS'kitchen - fridge'
p1170
F0.0
sg15
I0
sS'bathroom corridor'
p1171
F0.0
sS'kitchen'
p1172
F0.0
sa(dp1173
S'lounge'
p1174
F0.0
sS'entrance'
p1175
F0.0
sS'workzone T'
p1176
F0.0
sS'workzone P'
p1177
F0.0
sS'lounge - sofas'
p1178
F0.0
sS'workzone Y'
p1179
F0.0
sS'entrance corridor'
p1180
F0.0
sS'workzone G'
p1181
F0.0
sS'kitchen - coffee'
p1182
F0.0
sS'workzone corridor'
p1183
F0.0
sg12
F1472147675.6176207
sS'lounge - tv'
p1184
F0.0
sS'kitchen - fridge'
p1185
F0.0
sg15
I0
sS'bathroom corridor'
p1186
F0.0
sS'kitchen'
p1187
F0.0
sa(dp1188
S'lounge'
p1189
F0.0
sS'entrance'
p1190
F0.0
sS'workzone T'
p1191
F0.0
sS'workzone P'
p1192
F0.0
sS'lounge - sofas'
p1193
F0.0
sS'workzone Y'
p1194
F0.0
sS'entrance corridor'
p1195
F0.0
sS'workzone G'
p1196
F0.0
sS'kitchen - coffee'
p1197
F0.0
sS'workzone corridor'
p1198
F0.0
sg12
F1472147677.6203036
sS'lounge - tv'
p1199
F0.0
sS'kitchen - fridge'
p1200
F0.0
sg15
I0
sS'bathroom corridor'
p1201
F0.0
sS'kitchen'
p1202
F0.0
sa(dp1203
S'lounge'
p1204
F0.0
sS'entrance'
p1205
F0.0
sS'workzone T'
p1206
F0.0
sS'workzone P'
p1207
F0.0
sS'lounge - sofas'
p1208
F0.0
sS'workzone Y'
p1209
F0.0
sS'entrance corridor'
p1210
F0.0
sS'workzone G'
p1211
F0.0
sS'kitchen - coffee'
p1212
F0.0
sS'workzone corridor'
p1213
F0.0
sg12
F1472147679.6247387
sS'lounge - tv'
p1214
F0.0
sS'kitchen - fridge'
p1215
F0.0
sg15
I0
sS'bathroom corridor'
p1216
F0.0
sS'kitchen'
p1217
F0.0
sa(dp1218
S'lounge'
p1219
F0.0
sS'entrance'
p1220
F0.0
sS'workzone T'
p1221
F0.0
sS'workzone P'
p1222
F0.0
sS'lounge - sofas'
p1223
F0.0
sS'workzone Y'
p1224
F0.0
sS'entrance corridor'
p1225
F0.0
sS'workzone G'
p1226
F0.0
sS'kitchen - coffee'
p1227
F0.0
sS'workzone corridor'
p1228
F0.0
sg12
F1472147681.6186965
sS'lounge - tv'
p1229
F0.0
sS'kitchen - fridge'
p1230
F0.0
sg15
I0
sS'bathroom corridor'
p1231
F0.0
sS'kitchen'
p1232
F0.0
sa(dp1233
S'lounge'
p1234
F0.0
sS'entrance'
p1235
F0.0
sS'workzone T'
p1236
F0.0
sS'workzone P'
p1237
F0.0
sS'lounge - sofas'
p1238
F0.0
sS'workzone Y'
p1239
F0.0
sS'entrance corridor'
p1240
F0.0
sS'workzone G'
p1241
F0.0
sS'kitchen - coffee'
p1242
F0.0
sS'workzone corridor'
p1243
F0.0
sg12
F1472147683.6220906
sS'lounge - tv'
p1244
F0.0
sS'kitchen - fridge'
p1245
F0.0
sg15
I0
sS'bathroom corridor'
p1246
F0.0
sS'kitchen'
p1247
F0.0
sa(dp1248
S'lounge'
p1249
F0.0
sS'entrance'
p1250
F0.0
sS'workzone T'
p1251
F0.0
sS'workzone P'
p1252
F0.0
sS'lounge - sofas'
p1253
F0.0
sS'workzone Y'
p1254
F0.0
sS'entrance corridor'
p1255
F0.0
sS'workzone G'
p1256
F0.0
sS'kitchen - coffee'
p1257
F0.0
sS'workzone corridor'
p1258
F0.0
sg12
F1472147685.616679
sS'lounge - tv'
p1259
F0.0
sS'kitchen - fridge'
p1260
F0.0
sg15
I0
sS'bathroom corridor'
p1261
F0.0
sS'kitchen'
p1262
F0.0
sa(dp1263
S'lounge'
p1264
F0.0
sS'entrance'
p1265
F0.0
sS'workzone T'
p1266
F0.0
sS'workzone P'
p1267
F0.0
sS'lounge - sofas'
p1268
F0.0
sS'workzone Y'
p1269
F0.0
sS'entrance corridor'
p1270
F0.0
sS'workzone G'
p1271
F0.0
sS'kitchen - coffee'
p1272
F0.0
sS'workzone corridor'
p1273
F0.0
sg12
F1472147687.6294882
sS'lounge - tv'
p1274
F0.0
sS'kitchen - fridge'
p1275
F0.0
sg15
I0
sS'bathroom corridor'
p1276
F0.0
sS'kitchen'
p1277
F0.0
sa(dp1278
S'lounge'
p1279
F0.0
sS'entrance'
p1280
F0.0
sS'workzone T'
p1281
F0.0
sS'workzone P'
p1282
F0.0
sS'lounge - sofas'
p1283
F0.0
sS'workzone Y'
p1284
F0.0
sS'entrance corridor'
p1285
F0.0
sS'workzone G'
p1286
F0.0
sS'kitchen - coffee'
p1287
F0.0
sS'workzone corridor'
p1288
F0.0
sg12
F1472147689.6228392
sS'lounge - tv'
p1289
F0.0
sS'kitchen - fridge'
p1290
F0.0
sg15
I0
sS'bathroom corridor'
p1291
F0.0
sS'kitchen'
p1292
F0.0
sa(dp1293
S'lounge'
p1294
F0.0
sS'entrance'
p1295
F0.0
sS'workzone T'
p1296
F0.0
sS'workzone P'
p1297
F0.0
sS'lounge - sofas'
p1298
F0.0
sS'workzone Y'
p1299
F0.0
sS'entrance corridor'
p1300
F0.0
sS'workzone G'
p1301
F0.0
sS'kitchen - coffee'
p1302
F0.0
sS'workzone corridor'
p1303
F0.0
sg12
F1472147691.6167393
sS'lounge - tv'
p1304
F0.0
sS'kitchen - fridge'
p1305
F0.0
sg15
I0
sS'bathroom corridor'
p1306
F0.0
sS'kitchen'
p1307
F0.0
sa(dp1308
S'lounge'
p1309
F0.0
sS'entrance'
p1310
F0.0
sS'workzone T'
p1311
F0.0
sS'workzone P'
p1312
F0.0
sS'lounge - sofas'
p1313
F0.0
sS'workzone Y'
p1314
F0.0
sS'entrance corridor'
p1315
F0.0
sS'workzone G'
p1316
F0.0
sS'kitchen - coffee'
p1317
F0.0
sS'workzone corridor'
p1318
F0.0
sg12
F1472147693.6216536
sS'lounge - tv'
p1319
F0.0
sS'kitchen - fridge'
p1320
F0.0
sg15
I0
sS'bathroom corridor'
p1321
F0.0
sS'kitchen'
p1322
F0.0
sa(dp1323
S'lounge'
p1324
F0.0
sS'entrance'
p1325
F0.0
sS'workzone T'
p1326
F0.0
sS'workzone P'
p1327
F0.0
sS'lounge - sofas'
p1328
F0.0
sS'workzone Y'
p1329
F0.0
sS'entrance corridor'
p1330
F0.0
sS'workzone G'
p1331
F0.0
sS'kitchen - coffee'
p1332
F0.0
sS'workzone corridor'
p1333
F0.0
sg12
F1472147695.625279
sS'lounge - tv'
p1334
F0.0
sS'kitchen - fridge'
p1335
F0.0
sg15
I0
sS'bathroom corridor'
p1336
F0.0
sS'kitchen'
p1337
F0.0
sa(dp1338
S'lounge'
p1339
F0.0
sS'entrance'
p1340
F0.0
sS'workzone T'
p1341
F0.0
sS'workzone P'
p1342
F0.0
sS'lounge - sofas'
p1343
F0.0
sS'workzone Y'
p1344
F0.0
sS'entrance corridor'
p1345
F0.0
sS'workzone G'
p1346
F0.0
sS'kitchen - coffee'
p1347
F0.0
sS'workzone corridor'
p1348
F0.0
sg12
F1472147697.6294208
sS'lounge - tv'
p1349
F0.0
sS'kitchen - fridge'
p1350
F0.0
sg15
I0
sS'bathroom corridor'
p1351
F0.0
sS'kitchen'
p1352
F0.0
sa(dp1353
S'lounge'
p1354
F0.0
sS'entrance'
p1355
F0.0
sS'workzone T'
p1356
F0.0
sS'workzone P'
p1357
F0.0
sS'lounge - sofas'
p1358
F0.0
sS'workzone Y'
p1359
F0.0
sS'entrance corridor'
p1360
F0.0
sS'workzone G'
p1361
F0.0
sS'kitchen - coffee'
p1362
F0.0
sS'workzone corridor'
p1363
F0.0
sg12
F1472147699.6235297
sS'lounge - tv'
p1364
F0.0
sS'kitchen - fridge'
p1365
F0.0
sg15
I0
sS'bathroom corridor'
p1366
F0.0
sS'kitchen'
p1367
F0.0
sa(dp1368
S'lounge'
p1369
F0.0
sS'entrance'
p1370
F0.0
sS'workzone T'
p1371
F0.0
sS'workzone P'
p1372
F0.0
sS'lounge - sofas'
p1373
F0.0
sS'workzone Y'
p1374
F0.0
sS'entrance corridor'
p1375
F0.0
sS'workzone G'
p1376
F0.0
sS'kitchen - coffee'
p1377
F0.0
sS'workzone corridor'
p1378
F0.0
sg12
F1472147701.6179175
sS'lounge - tv'
p1379
F0.0
sS'kitchen - fridge'
p1380
F0.0
sg15
I0
sS'bathroom corridor'
p1381
F0.0
sS'kitchen'
p1382
F0.0
sa(dp1383
S'lounge'
p1384
F0.0
sS'entrance'
p1385
F0.007508
sS'workzone T'
p1386
F0.035663
sS'workzone P'
p1387
F0.237938
sS'lounge - sofas'
p1388
F0.0
sS'workzone Y'
p1389
F0.050679
sS'entrance corridor'
p1390
F0.324169
sS'workzone G'
p1391
F0.216407
sS'kitchen - coffee'
p1392
F0.0
sS'workzone corridor'
p1393
F0.127636
sg12
F1472147703.6325257
sS'lounge - tv'
p1394
F0.0
sS'kitchen - fridge'
p1395
F0.0
sg15
I4
sS'bathroom corridor'
p1396
F0.0
sS'kitchen'
p1397
F0.0
sa(dp1398
S'lounge'
p1399
F0.0
sS'entrance'
p1400
F0.00523948
sS'workzone T'
p1401
F0.0429979
sS'workzone P'
p1402
F0.239137
sS'lounge - sofas'
p1403
F0.0
sS'workzone Y'
p1404
F0.0594567
sS'entrance corridor'
p1405
F0.302238
sS'workzone G'
p1406
F0.219261
sS'kitchen - coffee'
p1407
F0.0
sS'workzone corridor'
p1408
F0.13167
sg12
F1472147705.6170285
sS'lounge - tv'
p1409
F0.0
sS'kitchen - fridge'
p1410
F0.0
sg15
I8
sS'bathroom corridor'
p1411
F0.0
sS'kitchen'
p1412
F0.0
sa(dp1413
S'lounge'
p1414
F0.0
sS'entrance'
p1415
F0.00523948
sS'workzone T'
p1416
F0.0429979
sS'workzone P'
p1417
F0.239137
sS'lounge - sofas'
p1418
F0.0
sS'workzone Y'
p1419
F0.0594567
sS'entrance corridor'
p1420
F0.302238
sS'workzone G'
p1421
F0.219261
sS'kitchen - coffee'
p1422
F0.0
sS'workzone corridor'
p1423
F0.13167
sg12
F1472147707.6321447
sS'lounge - tv'
p1424
F0.0
sS'kitchen - fridge'
p1425
F0.0
sg15
I8
sS'bathroom corridor'
p1426
F0.0
sS'kitchen'
p1427
F0.0
sa(dp1428
S'lounge'
p1429
F0.0
sS'entrance'
p1430
F0.00446814
sS'workzone T'
p1431
F0.0506728
sS'workzone P'
p1432
F0.238944
sS'lounge - sofas'
p1433
F0.0
sS'workzone Y'
p1434
F0.0681899
sS'entrance corridor'
p1435
F0.282711
sS'workzone G'
p1436
F0.219954
sS'kitchen - coffee'
p1437
F0.0
sS'workzone corridor'
p1438
F0.13506
sg12
F1472147709.6175265
sS'lounge - tv'
p1439
F0.0
sS'kitchen - fridge'
p1440
F0.0
sg15
I9
sS'bathroom corridor'
p1441
F0.0
sS'kitchen'
p1442
F0.0
sa(dp1443
S'lounge'
p1444
F0.0
sS'entrance'
p1445
F0.00446814
sS'workzone T'
p1446
F0.0506728
sS'workzone P'
p1447
F0.238944
sS'lounge - sofas'
p1448
F0.0
sS'workzone Y'
p1449
F0.0681899
sS'entrance corridor'
p1450
F0.282711
sS'workzone G'
p1451
F0.219954
sS'kitchen - coffee'
p1452
F0.0
sS'workzone corridor'
p1453
F0.13506
sg12
F1472147711.6226242
sS'lounge - tv'
p1454
F0.0
sS'kitchen - fridge'
p1455
F0.0
sg15
I9
sS'bathroom corridor'
p1456
F0.0
sS'kitchen'
p1457
F0.0
sa(dp1458
S'lounge'
p1459
F0.0
sS'entrance'
p1460
F0.00446814
sS'workzone T'
p1461
F0.0506728
sS'workzone P'
p1462
F0.238944
sS'lounge - sofas'
p1463
F0.0
sS'workzone Y'
p1464
F0.0681899
sS'entrance corridor'
p1465
F0.282711
sS'workzone G'
p1466
F0.219954
sS'kitchen - coffee'
p1467
F0.0
sS'workzone corridor'
p1468
F0.13506
sg12
F1472147713.6172502
sS'lounge - tv'
p1469
F0.0
sS'kitchen - fridge'
p1470
F0.0
sg15
I9
sS'bathroom corridor'
p1471
F0.0
sS'kitchen'
p1472
F0.0
sa(dp1473
S'lounge'
p1474
F0.0
sS'entrance'
p1475
F0.00446814
sS'workzone T'
p1476
F0.0506728
sS'workzone P'
p1477
F0.238944
sS'lounge - sofas'
p1478
F0.0
sS'workzone Y'
p1479
F0.0681899
sS'entrance corridor'
p1480
F0.282711
sS'workzone G'
p1481
F0.219954
sS'kitchen - coffee'
p1482
F0.0
sS'workzone corridor'
p1483
F0.13506
sg12
F1472147715.6224701
sS'lounge - tv'
p1484
F0.0
sS'kitchen - fridge'
p1485
F0.0
sg15
I9
sS'bathroom corridor'
p1486
F0.0
sS'kitchen'
p1487
F0.0
sa(dp1488
S'lounge'
p1489
F0.0
sS'entrance'
p1490
F0.00446814
sS'workzone T'
p1491
F0.0506728
sS'workzone P'
p1492
F0.238944
sS'lounge - sofas'
p1493
F0.0
sS'workzone Y'
p1494
F0.0681899
sS'entrance corridor'
p1495
F0.282711
sS'workzone G'
p1496
F0.219954
sS'kitchen - coffee'
p1497
F0.0
sS'workzone corridor'
p1498
F0.13506
sg12
F1472147717.627617
sS'lounge - tv'
p1499
F0.0
sS'kitchen - fridge'
p1500
F0.0
sg15
I9
sS'bathroom corridor'
p1501
F0.0
sS'kitchen'
p1502
F0.0
sa(dp1503
S'lounge'
p1504
F0.0
sS'entrance'
p1505
F0.00446814
sS'workzone T'
p1506
F0.0506728
sS'workzone P'
p1507
F0.238944
sS'lounge - sofas'
p1508
F0.0
sS'workzone Y'
p1509
F0.0681899
sS'entrance corridor'
p1510
F0.282711
sS'workzone G'
p1511
F0.219954
sS'kitchen - coffee'
p1512
F0.0
sS'workzone corridor'
p1513
F0.13506
sg12
F1472147719.6230538
sS'lounge - tv'
p1514
F0.0
sS'kitchen - fridge'
p1515
F0.0
sg15
I9
sS'bathroom corridor'
p1516
F0.0
sS'kitchen'
p1517
F0.0
sa(dp1518
S'lounge'
p1519
F0.0
sS'entrance'
p1520
F0.00446814
sS'workzone T'
p1521
F0.0506728
sS'workzone P'
p1522
F0.238944
sS'lounge - sofas'
p1523
F0.0
sS'workzone Y'
p1524
F0.0681899
sS'entrance corridor'
p1525
F0.282711
sS'workzone G'
p1526
F0.219954
sS'kitchen - coffee'
p1527
F0.0
sS'workzone corridor'
p1528
F0.13506
sg12
F1472147721.6164937
sS'lounge - tv'
p1529
F0.0
sS'kitchen - fridge'
p1530
F0.0
sg15
I9
sS'bathroom corridor'
p1531
F0.0
sS'kitchen'
p1532
F0.0
sa(dp1533
S'lounge'
p1534
F0.0
sS'entrance'
p1535
F0.00307058
sS'workzone T'
p1536
F0.110985
sS'workzone P'
p1537
F0.188679
sS'lounge - sofas'
p1538
F0.0
sS'workzone Y'
p1539
F0.159064
sS'entrance corridor'
p1540
F0.203992
sS'workzone G'
p1541
F0.18375
sS'kitchen - coffee'
p1542
F0.0
sS'workzone corridor'
p1543
F0.150459
sg12
F1472147723.6214757
sS'lounge - tv'
p1544
F0.0
sS'kitchen - fridge'
p1545
F0.0
sg15
I12
sS'bathroom corridor'
p1546
F0.0
sS'kitchen'
p1547
F0.0
sa(dp1548
S'lounge'
p1549
F0.0
sS'entrance'
p1550
F0.00307058
sS'workzone T'
p1551
F0.110985
sS'workzone P'
p1552
F0.188679
sS'lounge - sofas'
p1553
F0.0
sS'workzone Y'
p1554
F0.159064
sS'entrance corridor'
p1555
F0.203992
sS'workzone G'
p1556
F0.18375
sS'kitchen - coffee'
p1557
F0.0
sS'workzone corridor'
p1558
F0.150459
sg12
F1472147725.6263068
sS'lounge - tv'
p1559
F0.0
sS'kitchen - fridge'
p1560
F0.0
sg15
I12
sS'bathroom corridor'
p1561
F0.0
sS'kitchen'
p1562
F0.0
sa(dp1563
S'lounge'
p1564
F0.0
sS'entrance'
p1565
F0.00307058
sS'workzone T'
p1566
F0.110985
sS'workzone P'
p1567
F0.188679
sS'lounge - sofas'
p1568
F0.0
sS'workzone Y'
p1569
F0.159064
sS'entrance corridor'
p1570
F0.203992
sS'workzone G'
p1571
F0.18375
sS'kitchen - coffee'
p1572
F0.0
sS'workzone corridor'
p1573
F0.150459
sg12
F1472147727.6317232
sS'lounge - tv'
p1574
F0.0
sS'kitchen - fridge'
p1575
F0.0
sg15
I12
sS'bathroom corridor'
p1576
F0.0
sS'kitchen'
p1577
F0.0
sa(dp1578
S'lounge'
p1579
F0.0
sS'entrance'
p1580
F0.00307058
sS'workzone T'
p1581
F0.110985
sS'workzone P'
p1582
F0.188679
sS'lounge - sofas'
p1583
F0.0
sS'workzone Y'
p1584
F0.159064
sS'entrance corridor'
p1585
F0.203992
sS'workzone G'
p1586
F0.18375
sS'kitchen - coffee'
p1587
F0.0
sS'workzone corridor'
p1588
F0.150459
sg12
F1472147729.6172411
sS'lounge - tv'
p1589
F0.0
sS'kitchen - fridge'
p1590
F0.0
sg15
I12
sS'bathroom corridor'
p1591
F0.0
sS'kitchen'
p1592
F0.0
sa(dp1593
S'lounge'
p1594
F0.0
sS'entrance'
p1595
F0.00307058
sS'workzone T'
p1596
F0.110985
sS'workzone P'
p1597
F0.188679
sS'lounge - sofas'
p1598
F0.0
sS'workzone Y'
p1599
F0.159064
sS'entrance corridor'
p1600
F0.203992
sS'workzone G'
p1601
F0.18375
sS'kitchen - coffee'
p1602
F0.0
sS'workzone corridor'
p1603
F0.150459
sg12
F1472147731.622057
sS'lounge - tv'
p1604
F0.0
sS'kitchen - fridge'
p1605
F0.0
sg15
I12
sS'bathroom corridor'
p1606
F0.0
sS'kitchen'
p1607
F0.0
sa(dp1608
S'lounge'
p1609
F0.0
sS'entrance'
p1610
F0.00307058
sS'workzone T'
p1611
F0.110985
sS'workzone P'
p1612
F0.188679
sS'lounge - sofas'
p1613
F0.0
sS'workzone Y'
p1614
F0.159064
sS'entrance corridor'
p1615
F0.203992
sS'workzone G'
p1616
F0.18375
sS'kitchen - coffee'
p1617
F0.0
sS'workzone corridor'
p1618
F0.150459
sg12
F1472147733.6212268
sS'lounge - tv'
p1619
F0.0
sS'kitchen - fridge'
p1620
F0.0
sg15
I12
sS'bathroom corridor'
p1621
F0.0
sS'kitchen'
p1622
F0.0
sa(dp1623
S'lounge'
p1624
F0.0
sS'entrance'
p1625
F0.00307058
sS'workzone T'
p1626
F0.110985
sS'workzone P'
p1627
F0.188679
sS'lounge - sofas'
p1628
F0.0
sS'workzone Y'
p1629
F0.159064
sS'entrance corridor'
p1630
F0.203992
sS'workzone G'
p1631
F0.18375
sS'kitchen - coffee'
p1632
F0.0
sS'workzone corridor'
p1633
F0.150459
sg12
F1472147735.6163898
sS'lounge - tv'
p1634
F0.0
sS'kitchen - fridge'
p1635
F0.0
sg15
I12
sS'bathroom corridor'
p1636
F0.0
sS'kitchen'
p1637
F0.0
sa(dp1638
S'lounge'
p1639
F0.0
sS'entrance'
p1640
F0.00307058
sS'workzone T'
p1641
F0.110985
sS'workzone P'
p1642
F0.188679
sS'lounge - sofas'
p1643
F0.0
sS'workzone Y'
p1644
F0.159064
sS'entrance corridor'
p1645
F0.203992
sS'workzone G'
p1646
F0.18375
sS'kitchen - coffee'
p1647
F0.0
sS'workzone corridor'
p1648
F0.150459
sg12
F1472147737.6306057
sS'lounge - tv'
p1649
F0.0
sS'kitchen - fridge'
p1650
F0.0
sg15
I12
sS'bathroom corridor'
p1651
F0.0
sS'kitchen'
p1652
F0.0
sa(dp1653
S'lounge'
p1654
F0.0
sS'entrance'
p1655
F0.00307058
sS'workzone T'
p1656
F0.110985
sS'workzone P'
p1657
F0.188679
sS'lounge - sofas'
p1658
F0.0
sS'workzone Y'
p1659
F0.159064
sS'entrance corridor'
p1660
F0.203992
sS'workzone G'
p1661
F0.18375
sS'kitchen - coffee'
p1662
F0.0
sS'workzone corridor'
p1663
F0.150459
sg12
F1472147739.6245494
sS'lounge - tv'
p1664
F0.0
sS'kitchen - fridge'
p1665
F0.0
sg15
I12
sS'bathroom corridor'
p1666
F0.0
sS'kitchen'
p1667
F0.0
sa(dp1668
S'lounge'
p1669
F0.0
sS'entrance'
p1670
F0.00307058
sS'workzone T'
p1671
F0.110985
sS'workzone P'
p1672
F0.188679
sS'lounge - sofas'
p1673
F0.0
sS'workzone Y'
p1674
F0.159064
sS'entrance corridor'
p1675
F0.203992
sS'workzone G'
p1676
F0.18375
sS'kitchen - coffee'
p1677
F0.0
sS'workzone corridor'
p1678
F0.150459
sg12
F1472147741.6191757
sS'lounge - tv'
p1679
F0.0
sS'kitchen - fridge'
p1680
F0.0
sg15
I12
sS'bathroom corridor'
p1681
F0.0
sS'kitchen'
p1682
F0.0
sa(dp1683
S'lounge'
p1684
F0.0
sS'entrance'
p1685
F0.00307058
sS'workzone T'
p1686
F0.110985
sS'workzone P'
p1687
F0.188679
sS'lounge - sofas'
p1688
F0.0
sS'workzone Y'
p1689
F0.159064
sS'entrance corridor'
p1690
F0.203992
sS'workzone G'
p1691
F0.18375
sS'kitchen - coffee'
p1692
F0.0
sS'workzone corridor'
p1693
F0.150459
sg12
F1472147743.624717
sS'lounge - tv'
p1694
F0.0
sS'kitchen - fridge'
p1695
F0.0
sg15
I12
sS'bathroom corridor'
p1696
F0.0
sS'kitchen'
p1697
F0.0
sa(dp1698
S'lounge'
p1699
F0.0
sS'entrance'
p1700
F0.00307058
sS'workzone T'
p1701
F0.110985
sS'workzone P'
p1702
F0.188679
sS'lounge - sofas'
p1703
F0.0
sS'workzone Y'
p1704
F0.159064
sS'entrance corridor'
p1705
F0.203992
sS'workzone G'
p1706
F0.18375
sS'kitchen - coffee'
p1707
F0.0
sS'workzone corridor'
p1708
F0.150459
sg12
F1472147745.6193924
sS'lounge - tv'
p1709
F0.0
sS'kitchen - fridge'
p1710
F0.0
sg15
I12
sS'bathroom corridor'
p1711
F0.0
sS'kitchen'
p1712
F0.0
sa(dp1713
S'lounge'
p1714
F0.0
sS'entrance'
p1715
F0.00307058
sS'workzone T'
p1716
F0.110985
sS'workzone P'
p1717
F0.188679
sS'lounge - sofas'
p1718
F0.0
sS'workzone Y'
p1719
F0.159064
sS'entrance corridor'
p1720
F0.203992
sS'workzone G'
p1721
F0.18375
sS'kitchen - coffee'
p1722
F0.0
sS'workzone corridor'
p1723
F0.150459
sg12
F1472147747.6347635
sS'lounge - tv'
p1724
F0.0
sS'kitchen - fridge'
p1725
F0.0
sg15
I12
sS'bathroom corridor'
p1726
F0.0
sS'kitchen'
p1727
F0.0
sa(dp1728
S'lounge'
p1729
F0.0
sS'entrance'
p1730
F0.00307058
sS'workzone T'
p1731
F0.110985
sS'workzone P'
p1732
F0.188679
sS'lounge - sofas'
p1733
F0.0
sS'workzone Y'
p1734
F0.159064
sS'entrance corridor'
p1735
F0.203992
sS'workzone G'
p1736
F0.18375
sS'kitchen - coffee'
p1737
F0.0
sS'workzone corridor'
p1738
F0.150459
sg12
F1472147749.619754
sS'lounge - tv'
p1739
F0.0
sS'kitchen - fridge'
p1740
F0.0
sg15
I12
sS'bathroom corridor'
p1741
F0.0
sS'kitchen'
p1742
F0.0
sa(dp1743
S'lounge'
p1744
F0.0
sS'entrance'
p1745
F0.00307058
sS'workzone T'
p1746
F0.110985
sS'workzone P'
p1747
F0.188679
sS'lounge - sofas'
p1748
F0.0
sS'workzone Y'
p1749
F0.159064
sS'entrance corridor'
p1750
F0.203992
sS'workzone G'
p1751
F0.18375
sS'kitchen - coffee'
p1752
F0.0
sS'workzone corridor'
p1753
F0.150459
sg12
F1472147751.6249964
sS'lounge - tv'
p1754
F0.0
sS'kitchen - fridge'
p1755
F0.0
sg15
I12
sS'bathroom corridor'
p1756
F0.0
sS'kitchen'
p1757
F0.0
sa(dp1758
S'lounge'
p1759
F0.0
sS'entrance'
p1760
F0.00307058
sS'workzone T'
p1761
F0.110985
sS'workzone P'
p1762
F0.188679
sS'lounge - sofas'
p1763
F0.0
sS'workzone Y'
p1764
F0.159064
sS'entrance corridor'
p1765
F0.203992
sS'workzone G'
p1766
F0.18375
sS'kitchen - coffee'
p1767
F0.0
sS'workzone corridor'
p1768
F0.150459
sg12
F1472147753.620207
sS'lounge - tv'
p1769
F0.0
sS'kitchen - fridge'
p1770
F0.0
sg15
I12
sS'bathroom corridor'
p1771
F0.0
sS'kitchen'
p1772
F0.0
sa(dp1773
S'lounge'
p1774
F0.0
sS'entrance'
p1775
F0.00307058
sS'workzone T'
p1776
F0.110985
sS'workzone P'
p1777
F0.188679
sS'lounge - sofas'
p1778
F0.0
sS'workzone Y'
p1779
F0.159064
sS'entrance corridor'
p1780
F0.203992
sS'workzone G'
p1781
F0.18375
sS'kitchen - coffee'
p1782
F0.0
sS'workzone corridor'
p1783
F0.150459
sg12
F1472147755.6250036
sS'lounge - tv'
p1784
F0.0
sS'kitchen - fridge'
p1785
F0.0
sg15
I12
sS'bathroom corridor'
p1786
F0.0
sS'kitchen'
p1787
F0.0
sa(dp1788
S'lounge'
p1789
F0.0
sS'entrance'
p1790
F0.00307058
sS'workzone T'
p1791
F0.110985
sS'workzone P'
p1792
F0.188679
sS'lounge - sofas'
p1793
F0.0
sS'workzone Y'
p1794
F0.159064
sS'entrance corridor'
p1795
F0.203992
sS'workzone G'
p1796
F0.18375
sS'kitchen - coffee'
p1797
F0.0
sS'workzone corridor'
p1798
F0.150459
sg12
F1472147757.6302483
sS'lounge - tv'
p1799
F0.0
sS'kitchen - fridge'
p1800
F0.0
sg15
I12
sS'bathroom corridor'
p1801
F0.0
sS'kitchen'
p1802
F0.0
sa(dp1803
S'lounge'
p1804
F0.0
sS'entrance'
p1805
F0.00307058
sS'workzone T'
p1806
F0.110985
sS'workzone P'
p1807
F0.188679
sS'lounge - sofas'
p1808
F0.0
sS'workzone Y'
p1809
F0.159064
sS'entrance corridor'
p1810
F0.203992
sS'workzone G'
p1811
F0.18375
sS'kitchen - coffee'
p1812
F0.0
sS'workzone corridor'
p1813
F0.150459
sg12
F1472147759.624711
sS'lounge - tv'
p1814
F0.0
sS'kitchen - fridge'
p1815
F0.0
sg15
I12
sS'bathroom corridor'
p1816
F0.0
sS'kitchen'
p1817
F0.0
sa(dp1818
S'lounge'
p1819
F0.0
sS'entrance'
p1820
F0.00307058
sS'workzone T'
p1821
F0.110985
sS'workzone P'
p1822
F0.188679
sS'lounge - sofas'
p1823
F0.0
sS'workzone Y'
p1824
F0.159064
sS'entrance corridor'
p1825
F0.203992
sS'workzone G'
p1826
F0.18375
sS'kitchen - coffee'
p1827
F0.0
sS'workzone corridor'
p1828
F0.150459
sg12
F1472147761.6202488
sS'lounge - tv'
p1829
F0.0
sS'kitchen - fridge'
p1830
F0.0
sg15
I12
sS'bathroom corridor'
p1831
F0.0
sS'kitchen'
p1832
F0.0
sa(dp1833
S'lounge'
p1834
F0.0
sS'entrance'
p1835
F0.00307058
sS'workzone T'
p1836
F0.110985
sS'workzone P'
p1837
F0.188679
sS'lounge - sofas'
p1838
F0.0
sS'workzone Y'
p1839
F0.159064
sS'entrance corridor'
p1840
F0.203992
sS'workzone G'
p1841
F0.18375
sS'kitchen - coffee'
p1842
F0.0
sS'workzone corridor'
p1843
F0.150459
sg12
F1472147763.6251287
sS'lounge - tv'
p1844
F0.0
sS'kitchen - fridge'
p1845
F0.0
sg15
I12
sS'bathroom corridor'
p1846
F0.0
sS'kitchen'
p1847
F0.0
sa(dp1848
S'lounge'
p1849
F0.0
sS'entrance'
p1850
F0.00307058
sS'workzone T'
p1851
F0.110985
sS'workzone P'
p1852
F0.188679
sS'lounge - sofas'
p1853
F0.0
sS'workzone Y'
p1854
F0.159064
sS'entrance corridor'
p1855
F0.203992
sS'workzone G'
p1856
F0.18375
sS'kitchen - coffee'
p1857
F0.0
sS'workzone corridor'
p1858
F0.150459
sg12
F1472147765.619377
sS'lounge - tv'
p1859
F0.0
sS'kitchen - fridge'
p1860
F0.0
sg15
I12
sS'bathroom corridor'
p1861
F0.0
sS'kitchen'
p1862
F0.0
sa(dp1863
S'lounge'
p1864
F0.0
sS'entrance'
p1865
F0.00307058
sS'workzone T'
p1866
F0.110985
sS'workzone P'
p1867
F0.188679
sS'lounge - sofas'
p1868
F0.0
sS'workzone Y'
p1869
F0.159064
sS'entrance corridor'
p1870
F0.203992
sS'workzone G'
p1871
F0.18375
sS'kitchen - coffee'
p1872
F0.0
sS'workzone corridor'
p1873
F0.150459
sg12
F1472147767.6240296
sS'lounge - tv'
p1874
F0.0
sS'kitchen - fridge'
p1875
F0.0
sg15
I12
sS'bathroom corridor'
p1876
F0.0
sS'kitchen'
p1877
F0.0
sa(dp1878
S'lounge'
p1879
F0.0
sS'entrance'
p1880
F0.00307058
sS'workzone T'
p1881
F0.110985
sS'workzone P'
p1882
F0.188679
sS'lounge - sofas'
p1883
F0.0
sS'workzone Y'
p1884
F0.159064
sS'entrance corridor'
p1885
F0.203992
sS'workzone G'
p1886
F0.18375
sS'kitchen - coffee'
p1887
F0.0
sS'workzone corridor'
p1888
F0.150459
sg12
F1472147769.6184058
sS'lounge - tv'
p1889
F0.0
sS'kitchen - fridge'
p1890
F0.0
sg15
I12
sS'bathroom corridor'
p1891
F0.0
sS'kitchen'
p1892
F0.0
sa(dp1893
S'lounge'
p1894
F0.0
sS'entrance'
p1895
F0.00307058
sS'workzone T'
p1896
F0.110985
sS'workzone P'
p1897
F0.188679
sS'lounge - sofas'
p1898
F0.0
sS'workzone Y'
p1899
F0.159064
sS'entrance corridor'
p1900
F0.203992
sS'workzone G'
p1901
F0.18375
sS'kitchen - coffee'
p1902
F0.0
sS'workzone corridor'
p1903
F0.150459
sg12
F1472147771.622976
sS'lounge - tv'
p1904
F0.0
sS'kitchen - fridge'
p1905
F0.0
sg15
I12
sS'bathroom corridor'
p1906
F0.0
sS'kitchen'
p1907
F0.0
sa(dp1908
S'lounge'
p1909
F0.0
sS'entrance'
p1910
F0.00307058
sS'workzone T'
p1911
F0.110985
sS'workzone P'
p1912
F0.188679
sS'lounge - sofas'
p1913
F0.0
sS'workzone Y'
p1914
F0.159064
sS'entrance corridor'
p1915
F0.203992
sS'workzone G'
p1916
F0.18375
sS'kitchen - coffee'
p1917
F0.0
sS'workzone corridor'
p1918
F0.150459
sg12
F1472147773.6167774
sS'lounge - tv'
p1919
F0.0
sS'kitchen - fridge'
p1920
F0.0
sg15
I12
sS'bathroom corridor'
p1921
F0.0
sS'kitchen'
p1922
F0.0
sa(dp1923
S'lounge'
p1924
F0.0
sS'entrance'
p1925
F0.00175303
sS'workzone T'
p1926
F0.212015
sS'workzone P'
p1927
F0.131275
sS'lounge - sofas'
p1928
F0.0
sS'workzone Y'
p1929
F0.224421
sS'entrance corridor'
p1930
F0.135624
sS'workzone G'
p1931
F0.129117
sS'kitchen - coffee'
p1932
F0.0
sS'workzone corridor'
p1933
F0.165796
sg12
F1472147775.6526566
sS'lounge - tv'
p1934
F0.0
sS'kitchen - fridge'
p1935
F0.0
sg15
I20
sS'bathroom corridor'
p1936
F0.0
sS'kitchen'
p1937
F0.0
sa(dp1938
S'lounge'
p1939
F0.0
sS'entrance'
p1940
F0.00140589
sS'workzone T'
p1941
F0.238393
sS'workzone P'
p1942
F0.116241
sS'lounge - sofas'
p1943
F0.0
sS'workzone Y'
p1944
F0.241653
sS'entrance corridor'
p1945
F0.117615
sS'workzone G'
p1946
F0.114835
sS'kitchen - coffee'
p1947
F0.0
sS'workzone corridor'
p1948
F0.169857
sg12
F1472147777.6268973
sS'lounge - tv'
p1949
F0.0
sS'kitchen - fridge'
p1950
F0.0
sg15
I20
sS'bathroom corridor'
p1951
F0.0
sS'kitchen'
p1952
F0.0
sa(dp1953
S'lounge'
p1954
F0.0
sS'entrance'
p1955
F0.00140589
sS'workzone T'
p1956
F0.238393
sS'workzone P'
p1957
F0.116241
sS'lounge - sofas'
p1958
F0.0
sS'workzone Y'
p1959
F0.241653
sS'entrance corridor'
p1960
F0.117615
sS'workzone G'
p1961
F0.114835
sS'kitchen - coffee'
p1962
F0.0
sS'workzone corridor'
p1963
F0.169857
sg12
F1472147779.622378
sS'lounge - tv'
p1964
F0.0
sS'kitchen - fridge'
p1965
F0.0
sg15
I20
sS'bathroom corridor'
p1966
F0.0
sS'kitchen'
p1967
F0.0
sa(dp1968
S'lounge'
p1969
F0.0
sS'entrance'
p1970
F0.00140589
sS'workzone T'
p1971
F0.238393
sS'workzone P'
p1972
F0.116241
sS'lounge - sofas'
p1973
F0.0
sS'workzone Y'
p1974
F0.241653
sS'entrance corridor'
p1975
F0.117615
sS'workzone G'
p1976
F0.114835
sS'kitchen - coffee'
p1977
F0.0
sS'workzone corridor'
p1978
F0.169857
sg12
F1472147781.6174653
sS'lounge - tv'
p1979
F0.0
sS'kitchen - fridge'
p1980
F0.0
sg15
I20
sS'bathroom corridor'
p1981
F0.0
sS'kitchen'
p1982
F0.0
sa(dp1983
S'lounge'
p1984
F0.0
sS'entrance'
p1985
F0.000325521
sS'workzone T'
p1986
F0.377976
sS'workzone P'
p1987
F0.0430153
sS'lounge - sofas'
p1988
F0.0
sS'workzone Y'
p1989
F0.312012
sS'entrance corridor'
p1990
F0.0349005
sS'workzone G'
p1991
F0.0452474
sS'kitchen - coffee'
p1992
F0.0
sS'workzone corridor'
p1993
F0.186523
sg12
F1472147783.6216323
sS'lounge - tv'
p1994
F0.0
sS'kitchen - fridge'
p1995
F0.0
sg15
I34
sS'bathroom corridor'
p1996
F0.0
sS'kitchen'
p1997
F0.0
sa(dp1998
S'lounge'
p1999
F0.0
sS'entrance'
p2000
F0.0
sS'workzone T'
p2001
F0.464363
sS'workzone P'
p2002
F0.00455056
sS'lounge - sofas'
p2003
F0.0
sS'workzone Y'
p2004
F0.333276
sS'entrance corridor'
p2005
F0.0
sS'workzone G'
p2006
F0.00713611
sS'kitchen - coffee'
p2007
F0.0
sS'workzone corridor'
p2008
F0.190675
sg12
F1472147785.686492
sS'lounge - tv'
p2009
F0.0
sS'kitchen - fridge'
p2010
F0.0
sg15
I52
sS'bathroom corridor'
p2011
F0.0
sS'kitchen'
p2012
F0.0
sa(dp2013
S'lounge'
p2014
F0.0
sS'entrance'
p2015
F0.0
sS'workzone T'
p2016
F0.508486
sS'workzone P'
p2017
F0.0
sS'lounge - sofas'
p2018
F0.0
sS'workzone Y'
p2019
F0.305926
sS'entrance corridor'
p2020
F0.0
sS'workzone G'
p2021
F0.0
sS'kitchen - coffee'
p2022
F0.0
sS'workzone corridor'
p2023
F0.185588
sg12
F1472147787.9913752
sS'lounge - tv'
p2024
F0.0
sS'kitchen - fridge'
p2025
F0.0
sg15
I117
sS'bathroom corridor'
p2026
F0.0
sS'kitchen'
p2027
F0.0
sa(dp2028
S'lounge'
p2029
F0.0
sS'entrance'
p2030
F0.0
sS'workzone T'
p2031
F0.532641
sS'workzone P'
p2032
F0.0
sS'lounge - sofas'
p2033
F0.0
sS'workzone Y'
p2034
F0.281972
sS'entrance corridor'
p2035
F0.0
sS'workzone G'
p2036
F0.0
sS'kitchen - coffee'
p2037
F0.0
sS'workzone corridor'
p2038
F0.185387
sg12
F1472147790.247486
sS'lounge - tv'
p2039
F0.0
sS'kitchen - fridge'
p2040
F0.0
sg15
I183
sS'bathroom corridor'
p2041
F0.0
sS'kitchen'
p2042
F0.0
sa(dp2043
S'lounge'
p2044
F0.0
sS'entrance'
p2045
F0.0
sS'workzone T'
p2046
F0.557699
sS'workzone P'
p2047
F0.0
sS'lounge - sofas'
p2048
F0.0
sS'workzone Y'
p2049
F0.256777
sS'entrance corridor'
p2050
F0.0
sS'workzone G'
p2051
F0.0
sS'kitchen - coffee'
p2052
F0.0
sS'workzone corridor'
p2053
F0.185525
sg12
F1472147792.5919793
sS'lounge - tv'
p2054
F0.0
sS'kitchen - fridge'
p2055
F0.0
sg15
I246
sS'bathroom corridor'
p2056
F0.0
sS'kitchen'
p2057
F0.0
sa(dp2058
S'lounge'
p2059
F0.0
sS'entrance'
p2060
F0.0
sS'workzone T'
p2061
F0.569675
sS'workzone P'
p2062
F0.0
sS'lounge - sofas'
p2063
F0.0
sS'workzone Y'
p2064
F0.244879
sS'entrance corridor'
p2065
F0.0
sS'workzone G'
p2066
F0.0
sS'kitchen - coffee'
p2067
F0.0
sS'workzone corridor'
p2068
F0.185446
sg12
F1472147793.778685
sS'lounge - tv'
p2069
F0.0
sS'kitchen - fridge'
p2070
F0.0
sg15
I253
sS'bathroom corridor'
p2071
F0.0
sS'kitchen'
p2072
F0.0
sa(dp2073
S'lounge'
p2074
F0.0
sS'entrance'
p2075
F0.0
sS'workzone T'
p2076
F0.573919
sS'workzone P'
p2077
F0.0
sS'lounge - sofas'
p2078
F0.0
sS'workzone Y'
p2079
F0.241636
sS'entrance corridor'
p2080
F0.0
sS'workzone G'
p2081
F0.0
sS'kitchen - coffee'
p2082
F0.0
sS'workzone corridor'
p2083
F0.184445
sg12
F1472147795.6218853
sS'lounge - tv'
p2084
F0.0
sS'kitchen - fridge'
p2085
F0.0
sg15
I264
sS'bathroom corridor'
p2086
F0.0
sS'kitchen'
p2087
F0.0
sa(dp2088
S'lounge'
p2089
F0.0
sS'entrance'
p2090
F0.0
sS'workzone T'
p2091
F0.573919
sS'workzone P'
p2092
F0.0
sS'lounge - sofas'
p2093
F0.0
sS'workzone Y'
p2094
F0.241636
sS'entrance corridor'
p2095
F0.0
sS'workzone G'
p2096
F0.0
sS'kitchen - coffee'
p2097
F0.0
sS'workzone corridor'
p2098
F0.184445
sg12
F1472147797.6265895
sS'lounge - tv'
p2099
F0.0
sS'kitchen - fridge'
p2100
F0.0
sg15
I264
sS'bathroom corridor'
p2101
F0.0
sS'kitchen'
p2102
F0.0
sa(dp2103
S'lounge'
p2104
F0.0
sS'entrance'
p2105
F0.0
sS'workzone T'
p2106
F0.573919
sS'workzone P'
p2107
F0.0
sS'lounge - sofas'
p2108
F0.0
sS'workzone Y'
p2109
F0.241636
sS'entrance corridor'
p2110
F0.0
sS'workzone G'
p2111
F0.0
sS'kitchen - coffee'
p2112
F0.0
sS'workzone corridor'
p2113
F0.184445
sg12
F1472147799.6212103
sS'lounge - tv'
p2114
F0.0
sS'kitchen - fridge'
p2115
F0.0
sg15
I264
sS'bathroom corridor'
p2116
F0.0
sS'kitchen'
p2117
F0.0
sa(dp2118
S'lounge'
p2119
F0.0
sS'entrance'
p2120
F0.0
sS'workzone T'
p2121
F0.585923
sS'workzone P'
p2122
F0.0
sS'lounge - sofas'
p2123
F0.0
sS'workzone Y'
p2124
F0.231902
sS'entrance corridor'
p2125
F0.0
sS'workzone G'
p2126
F0.0
sS'kitchen - coffee'
p2127
F0.0
sS'workzone corridor'
p2128
F0.182175
sg12
F1472147801.7443357
sS'lounge - tv'
p2129
F0.0
sS'kitchen - fridge'
p2130
F0.0
sg15
I319
sS'bathroom corridor'
p2131
F0.0
sS'kitchen'
p2132
F0.0
sa(dp2133
S'lounge'
p2134
F0.0
sS'entrance'
p2135
F0.0
sS'workzone T'
p2136
F0.595187
sS'workzone P'
p2137
F0.0
sS'lounge - sofas'
p2138
F0.0
sS'workzone Y'
p2139
F0.22388
sS'entrance corridor'
p2140
F0.0
sS'workzone G'
p2141
F0.0
sS'kitchen - coffee'
p2142
F0.0
sS'workzone corridor'
p2143
F0.180933
sg12
F1472147803.7363815
sS'lounge - tv'
p2144
F0.0
sS'kitchen - fridge'
p2145
F0.0
sg15
I369
sS'bathroom corridor'
p2146
F0.0
sS'kitchen'
p2147
F0.0
sa(dp2148
S'lounge'
p2149
F0.0
sS'entrance'
p2150
F0.0
sS'workzone T'
p2151
F0.603499
sS'workzone P'
p2152
F0.0
sS'lounge - sofas'
p2153
F0.0
sS'workzone Y'
p2154
F0.216593
sS'entrance corridor'
p2155
F0.0
sS'workzone G'
p2156
F0.0
sS'kitchen - coffee'
p2157
F0.0
sS'workzone corridor'
p2158
F0.179908
sg12
F1472147805.7689326
sS'lounge - tv'
p2159
F0.0
sS'kitchen - fridge'
p2160
F0.0
sg15
I422
sS'bathroom corridor'
p2161
F0.0
sS'kitchen'
p2162
F0.0
sa(dp2163
S'lounge'
p2164
F0.0
sS'entrance'
p2165
F0.0
sS'workzone T'
p2166
F0.610918
sS'workzone P'
p2167
F0.0
sS'lounge - sofas'
p2168
F0.0
sS'workzone Y'
p2169
F0.209927
sS'entrance corridor'
p2170
F0.0
sS'workzone G'
p2171
F0.0
sS'kitchen - coffee'
p2172
F0.0
sS'workzone corridor'
p2173
F0.179155
sg12
F1472147807.811565
sS'lounge - tv'
p2174
F0.0
sS'kitchen - fridge'
p2175
F0.0
sg15
I473
sS'bathroom corridor'
p2176
F0.0
sS'kitchen'
p2177
F0.0
sa(dp2178
S'lounge'
p2179
F0.0
sS'entrance'
p2180
F0.0
sS'workzone T'
p2181
F0.618364
sS'workzone P'
p2182
F0.0
sS'lounge - sofas'
p2183
F0.0
sS'workzone Y'
p2184
F0.203163
sS'entrance corridor'
p2185
F0.0
sS'workzone G'
p2186
F0.0
sS'kitchen - coffee'
p2187
F0.0
sS'workzone corridor'
p2188
F0.178473
sg12
F1472147809.9943607
sS'lounge - tv'
p2189
F0.0
sS'kitchen - fridge'
p2190
F0.0
sg15
I534
sS'bathroom corridor'
p2191
F0.0
sS'kitchen'
p2192
F0.0
sa(dp2193
S'lounge'
p2194
F0.0
sS'entrance'
p2195
F0.0
sS'workzone T'
p2196
F0.625811
sS'workzone P'
p2197
F0.0
sS'lounge - sofas'
p2198
F0.0
sS'workzone Y'
p2199
F0.196475
sS'entrance corridor'
p2200
F0.0
sS'workzone G'
p2201
F0.0
sS'kitchen - coffee'
p2202
F0.0
sS'workzone corridor'
p2203
F0.177714
sg12
F1472147812.1777513
sS'lounge - tv'
p2204
F0.0
sS'kitchen - fridge'
p2205
F0.0
sg15
I589
sS'bathroom corridor'
p2206
F0.0
sS'kitchen'
p2207
F0.0
sa(dp2208
S'lounge'
p2209
F0.0
sS'entrance'
p2210
F0.0
sS'workzone T'
p2211
F0.630768
sS'workzone P'
p2212
F0.0
sS'lounge - sofas'
p2213
F0.0
sS'workzone Y'
p2214
F0.191918
sS'entrance corridor'
p2215
F0.0
sS'workzone G'
p2216
F0.0
sS'kitchen - coffee'
p2217
F0.0
sS'workzone corridor'
p2218
F0.177314
sg12
F1472147813.8077352
sS'lounge - tv'
p2219
F0.0
sS'kitchen - fridge'
p2220
F0.0
sg15
I624
sS'bathroom corridor'
p2221
F0.0
sS'kitchen'
p2222
F0.0
sa(dp2223
S'lounge'
p2224
F0.0
sS'entrance'
p2225
F0.0
sS'workzone T'
p2226
F0.63607
sS'workzone P'
p2227
F0.0
sS'lounge - sofas'
p2228
F0.0
sS'workzone Y'
p2229
F0.187043
sS'entrance corridor'
p2230
F0.0
sS'workzone G'
p2231
F0.0
sS'kitchen - coffee'
p2232
F0.0
sS'workzone corridor'
p2233
F0.176888
sg12
F1472147815.6488938
sS'lounge - tv'
p2234
F0.0
sS'kitchen - fridge'
p2235
F0.0
sg15
I666
sS'bathroom corridor'
p2236
F0.0
sS'kitchen'
p2237
F0.0
sa(dp2238
S'lounge'
p2239
F0.0
sS'entrance'
p2240
F0.0
sS'workzone T'
p2241
F0.638662
sS'workzone P'
p2242
F0.0
sS'lounge - sofas'
p2243
F0.0
sS'workzone Y'
p2244
F0.184361
sS'entrance corridor'
p2245
F0.0
sS'workzone G'
p2246
F0.0
sS'kitchen - coffee'
p2247
F0.0
sS'workzone corridor'
p2248
F0.176977
sg12
F1472147817.6725757
sS'lounge - tv'
p2249
F0.0
sS'kitchen - fridge'
p2250
F0.0
sg15
I699
sS'bathroom corridor'
p2251
F0.0
sS'kitchen'
p2252
F0.0
sa(dp2253
S'lounge'
p2254
F0.0
sS'entrance'
p2255
F0.0
sS'workzone T'
p2256
F0.639575
sS'workzone P'
p2257
F0.0
sS'lounge - sofas'
p2258
F0.0
sS'workzone Y'
p2259
F0.182803
sS'entrance corridor'
p2260
F0.0
sS'workzone G'
p2261
F0.0
sS'kitchen - coffee'
p2262
F0.0
sS'workzone corridor'
p2263
F0.177622
sg12
F1472147819.6256843
sS'lounge - tv'
p2264
F0.0
sS'kitchen - fridge'
p2265
F0.0
sg15
I732
sS'bathroom corridor'
p2266
F0.0
sS'kitchen'
p2267
F0.0
sa(dp2268
S'lounge'
p2269
F0.0
sS'entrance'
p2270
F0.0
sS'workzone T'
p2271
F0.639575
sS'workzone P'
p2272
F0.0
sS'lounge - sofas'
p2273
F0.0
sS'workzone Y'
p2274
F0.182803
sS'entrance corridor'
p2275
F0.0
sS'workzone G'
p2276
F0.0
sS'kitchen - coffee'
p2277
F0.0
sS'workzone corridor'
p2278
F0.177622
sg12
F1472147821.6199224
sS'lounge - tv'
p2279
F0.0
sS'kitchen - fridge'
p2280
F0.0
sg15
I732
sS'bathroom corridor'
p2281
F0.0
sS'kitchen'
p2282
F0.0
sa(dp2283
S'lounge'
p2284
F0.0
sS'entrance'
p2285
F0.0
sS'workzone T'
p2286
F0.639575
sS'workzone P'
p2287
F0.0
sS'lounge - sofas'
p2288
F0.0
sS'workzone Y'
p2289
F0.182803
sS'entrance corridor'
p2290
F0.0
sS'workzone G'
p2291
F0.0
sS'kitchen - coffee'
p2292
F0.0
sS'workzone corridor'
p2293
F0.177622
sg12
F1472147823.624686
sS'lounge - tv'
p2294
F0.0
sS'kitchen - fridge'
p2295
F0.0
sg15
I732
sS'bathroom corridor'
p2296
F0.0
sS'kitchen'
p2297
F0.0
sa(dp2298
S'lounge'
p2299
F0.0
sS'entrance'
p2300
F0.0
sS'workzone T'
p2301
F0.639575
sS'workzone P'
p2302
F0.0
sS'lounge - sofas'
p2303
F0.0
sS'workzone Y'
p2304
F0.182803
sS'entrance corridor'
p2305
F0.0
sS'workzone G'
p2306
F0.0
sS'kitchen - coffee'
p2307
F0.0
sS'workzone corridor'
p2308
F0.177622
sg12
F1472147825.619761
sS'lounge - tv'
p2309
F0.0
sS'kitchen - fridge'
p2310
F0.0
sg15
I732
sS'bathroom corridor'
p2311
F0.0
sS'kitchen'
p2312
F0.0
sa(dp2313
S'lounge'
p2314
F0.0
sS'entrance'
p2315
F0.0
sS'workzone T'
p2316
F0.639575
sS'workzone P'
p2317
F0.0
sS'lounge - sofas'
p2318
F0.0
sS'workzone Y'
p2319
F0.182803
sS'entrance corridor'
p2320
F0.0
sS'workzone G'
p2321
F0.0
sS'kitchen - coffee'
p2322
F0.0
sS'workzone corridor'
p2323
F0.177622
sg12
F1472147827.635077
sS'lounge - tv'
p2324
F0.0
sS'kitchen - fridge'
p2325
F0.0
sg15
I732
sS'bathroom corridor'
p2326
F0.0
sS'kitchen'
p2327
F0.0
sa(dp2328
S'lounge'
p2329
F0.0
sS'entrance'
p2330
F0.0
sS'workzone T'
p2331
F0.639575
sS'workzone P'
p2332
F0.0
sS'lounge - sofas'
p2333
F0.0
sS'workzone Y'
p2334
F0.182803
sS'entrance corridor'
p2335
F0.0
sS'workzone G'
p2336
F0.0
sS'kitchen - coffee'
p2337
F0.0
sS'workzone corridor'
p2338
F0.177622
sg12
F1472147829.6200798
sS'lounge - tv'
p2339
F0.0
sS'kitchen - fridge'
p2340
F0.0
sg15
I732
sS'bathroom corridor'
p2341
F0.0
sS'kitchen'
p2342
F0.0
sa(dp2343
S'lounge'
p2344
F0.0
sS'entrance'
p2345
F0.0
sS'workzone T'
p2346
F0.639575
sS'workzone P'
p2347
F0.0
sS'lounge - sofas'
p2348
F0.0
sS'workzone Y'
p2349
F0.182803
sS'entrance corridor'
p2350
F0.0
sS'workzone G'
p2351
F0.0
sS'kitchen - coffee'
p2352
F0.0
sS'workzone corridor'
p2353
F0.177622
sg12
F1472147831.6252298
sS'lounge - tv'
p2354
F0.0
sS'kitchen - fridge'
p2355
F0.0
sg15
I732
sS'bathroom corridor'
p2356
F0.0
sS'kitchen'
p2357
F0.0
sa(dp2358
S'lounge'
p2359
F0.0
sS'entrance'
p2360
F0.0
sS'workzone T'
p2361
F0.639575
sS'workzone P'
p2362
F0.0
sS'lounge - sofas'
p2363
F0.0
sS'workzone Y'
p2364
F0.182803
sS'entrance corridor'
p2365
F0.0
sS'workzone G'
p2366
F0.0
sS'kitchen - coffee'
p2367
F0.0
sS'workzone corridor'
p2368
F0.177622
sg12
F1472147833.6205204
sS'lounge - tv'
p2369
F0.0
sS'kitchen - fridge'
p2370
F0.0
sg15
I732
sS'bathroom corridor'
p2371
F0.0
sS'kitchen'
p2372
F0.0
sa(dp2373
S'lounge'
p2374
F0.0
sS'entrance'
p2375
F0.0
sS'workzone T'
p2376
F0.639575
sS'workzone P'
p2377
F0.0
sS'lounge - sofas'
p2378
F0.0
sS'workzone Y'
p2379
F0.182803
sS'entrance corridor'
p2380
F0.0
sS'workzone G'
p2381
F0.0
sS'kitchen - coffee'
p2382
F0.0
sS'workzone corridor'
p2383
F0.177622
sg12
F1472147835.6994822
sS'lounge - tv'
p2384
F0.0
sS'kitchen - fridge'
p2385
F0.0
sg15
I732
sS'bathroom corridor'
p2386
F0.0
sS'kitchen'
p2387
F0.0
sa(dp2388
S'lounge'
p2389
F0.0
sS'entrance'
p2390
F0.0
sS'workzone T'
p2391
F0.639575
sS'workzone P'
p2392
F0.0
sS'lounge - sofas'
p2393
F0.0
sS'workzone Y'
p2394
F0.182803
sS'entrance corridor'
p2395
F0.0
sS'workzone G'
p2396
F0.0
sS'kitchen - coffee'
p2397
F0.0
sS'workzone corridor'
p2398
F0.177622
sg12
F1472147837.6334794
sS'lounge - tv'
p2399
F0.0
sS'kitchen - fridge'
p2400
F0.0
sg15
I732
sS'bathroom corridor'
p2401
F0.0
sS'kitchen'
p2402
F0.0
sa(dp2403
S'lounge'
p2404
F0.0
sS'entrance'
p2405
F0.0
sS'workzone T'
p2406
F0.639575
sS'workzone P'
p2407
F0.0
sS'lounge - sofas'
p2408
F0.0
sS'workzone Y'
p2409
F0.182803
sS'entrance corridor'
p2410
F0.0
sS'workzone G'
p2411
F0.0
sS'kitchen - coffee'
p2412
F0.0
sS'workzone corridor'
p2413
F0.177622
sg12
F1472147839.6185899
sS'lounge - tv'
p2414
F0.0
sS'kitchen - fridge'
p2415
F0.0
sg15
I732
sS'bathroom corridor'
p2416
F0.0
sS'kitchen'
p2417
F0.0
sa(dp2418
S'lounge'
p2419
F0.0
sS'entrance'
p2420
F0.0
sS'workzone T'
p2421
F0.639575
sS'workzone P'
p2422
F0.0
sS'lounge - sofas'
p2423
F0.0
sS'workzone Y'
p2424
F0.182803
sS'entrance corridor'
p2425
F0.0
sS'workzone G'
p2426
F0.0
sS'kitchen - coffee'
p2427
F0.0
sS'workzone corridor'
p2428
F0.177622
sg12
F1472147841.6236918
sS'lounge - tv'
p2429
F0.0
sS'kitchen - fridge'
p2430
F0.0
sg15
I732
sS'bathroom corridor'
p2431
F0.0
sS'kitchen'
p2432
F0.0
sa(dp2433
S'lounge'
p2434
F0.0
sS'entrance'
p2435
F0.0
sS'workzone T'
p2436
F0.639575
sS'workzone P'
p2437
F0.0
sS'lounge - sofas'
p2438
F0.0
sS'workzone Y'
p2439
F0.182803
sS'entrance corridor'
p2440
F0.0
sS'workzone G'
p2441
F0.0
sS'kitchen - coffee'
p2442
F0.0
sS'workzone corridor'
p2443
F0.177622
sg12
F1472147843.6186268
sS'lounge - tv'
p2444
F0.0
sS'kitchen - fridge'
p2445
F0.0
sg15
I732
sS'bathroom corridor'
p2446
F0.0
sS'kitchen'
p2447
F0.0
sa(dp2448
S'lounge'
p2449
F0.0
sS'entrance'
p2450
F0.0
sS'workzone T'
p2451
F0.639575
sS'workzone P'
p2452
F0.0
sS'lounge - sofas'
p2453
F0.0
sS'workzone Y'
p2454
F0.182803
sS'entrance corridor'
p2455
F0.0
sS'workzone G'
p2456
F0.0
sS'kitchen - coffee'
p2457
F0.0
sS'workzone corridor'
p2458
F0.177622
sg12
F1472147845.6234815
sS'lounge - tv'
p2459
F0.0
sS'kitchen - fridge'
p2460
F0.0
sg15
I732
sS'bathroom corridor'
p2461
F0.0
sS'kitchen'
p2462
F0.0
sa(dp2463
S'lounge'
p2464
F0.0
sS'entrance'
p2465
F0.0
sS'workzone T'
p2466
F0.629459
sS'workzone P'
p2467
F0.000494943
sS'lounge - sofas'
p2468
F0.0
sS'workzone Y'
p2469
F0.191971
sS'entrance corridor'
p2470
F0.0
sS'workzone G'
p2471
F0.000878125
sS'kitchen - coffee'
p2472
F0.0
sS'workzone corridor'
p2473
F0.177196
sg12
F1472147847.6283867
sS'lounge - tv'
p2474
F0.0
sS'kitchen - fridge'
p2475
F0.0
sg15
I738
sS'bathroom corridor'
p2476
F0.0
sS'kitchen'
p2477
F0.0
sa(dp2478
S'lounge'
p2479
F0.0
sS'entrance'
p2480
F0.0
sS'workzone T'
p2481
F0.629459
sS'workzone P'
p2482
F0.000494943
sS'lounge - sofas'
p2483
F0.0
sS'workzone Y'
p2484
F0.191971
sS'entrance corridor'
p2485
F0.0
sS'workzone G'
p2486
F0.000878125
sS'kitchen - coffee'
p2487
F0.0
sS'workzone corridor'
p2488
F0.177196
sg12
F1472147849.6165936
sS'lounge - tv'
p2489
F0.0
sS'kitchen - fridge'
p2490
F0.0
sg15
I738
sS'bathroom corridor'
p2491
F0.0
sS'kitchen'
p2492
F0.0
sa(dp2493
S'lounge'
p2494
F0.0
sS'entrance'
p2495
F0.0
sS'workzone T'
p2496
F0.629459
sS'workzone P'
p2497
F0.000494943
sS'lounge - sofas'
p2498
F0.0
sS'workzone Y'
p2499
F0.191971
sS'entrance corridor'
p2500
F0.0
sS'workzone G'
p2501
F0.000878125
sS'kitchen - coffee'
p2502
F0.0
sS'workzone corridor'
p2503
F0.177196
sg12
F1472147851.6224246
sS'lounge - tv'
p2504
F0.0
sS'kitchen - fridge'
p2505
F0.0
sg15
I738
sS'bathroom corridor'
p2506
F0.0
sS'kitchen'
p2507
F0.0
sa(dp2508
S'lounge'
p2509
F0.0
sS'entrance'
p2510
F0.0
sS'workzone T'
p2511
F0.629459
sS'workzone P'
p2512
F0.000494943
sS'lounge - sofas'
p2513
F0.0
sS'workzone Y'
p2514
F0.191971
sS'entrance corridor'
p2515
F0.0
sS'workzone G'
p2516
F0.000878125
sS'kitchen - coffee'
p2517
F0.0
sS'workzone corridor'
p2518
F0.177196
sg12
F1472147853.6170511
sS'lounge - tv'
p2519
F0.0
sS'kitchen - fridge'
p2520
F0.0
sg15
I738
sS'bathroom corridor'
p2521
F0.0
sS'kitchen'
p2522
F0.0
sa(dp2523
S'lounge'
p2524
F0.0
sS'entrance'
p2525
F0.0
sS'workzone T'
p2526
F0.629459
sS'workzone P'
p2527
F0.000494943
sS'lounge - sofas'
p2528
F0.0
sS'workzone Y'
p2529
F0.191971
sS'entrance corridor'
p2530
F0.0
sS'workzone G'
p2531
F0.000878125
sS'kitchen - coffee'
p2532
F0.0
sS'workzone corridor'
p2533
F0.177196
sg12
F1472147855.6213152
sS'lounge - tv'
p2534
F0.0
sS'kitchen - fridge'
p2535
F0.0
sg15
I738
sS'bathroom corridor'
p2536
F0.0
sS'kitchen'
p2537
F0.0
sa(dp2538
S'lounge'
p2539
F0.0
sS'entrance'
p2540
F0.0
sS'workzone T'
p2541
F0.629459
sS'workzone P'
p2542
F0.000494943
sS'lounge - sofas'
p2543
F0.0
sS'workzone Y'
p2544
F0.191971
sS'entrance corridor'
p2545
F0.0
sS'workzone G'
p2546
F0.000878125
sS'kitchen - coffee'
p2547
F0.0
sS'workzone corridor'
p2548
F0.177196
sg12
F1472147857.6348093
sS'lounge - tv'
p2549
F0.0
sS'kitchen - fridge'
p2550
F0.0
sg15
I738
sS'bathroom corridor'
p2551
F0.0
sS'kitchen'
p2552
F0.0
sa(dp2553
S'lounge'
p2554
F0.0
sS'entrance'
p2555
F0.0
sS'workzone T'
p2556
F0.629459
sS'workzone P'
p2557
F0.000494943
sS'lounge - sofas'
p2558
F0.0
sS'workzone Y'
p2559
F0.191971
sS'entrance corridor'
p2560
F0.0
sS'workzone G'
p2561
F0.000878125
sS'kitchen - coffee'
p2562
F0.0
sS'workzone corridor'
p2563
F0.177196
sg12
F1472147859.6209967
sS'lounge - tv'
p2564
F0.0
sS'kitchen - fridge'
p2565
F0.0
sg15
I738
sS'bathroom corridor'
p2566
F0.0
sS'kitchen'
p2567
F0.0
sa(dp2568
S'lounge'
p2569
F0.0
sS'entrance'
p2570
F0.0
sS'workzone T'
p2571
F0.629459
sS'workzone P'
p2572
F0.000494943
sS'lounge - sofas'
p2573
F0.0
sS'workzone Y'
p2574
F0.191971
sS'entrance corridor'
p2575
F0.0
sS'workzone G'
p2576
F0.000878125
sS'kitchen - coffee'
p2577
F0.0
sS'workzone corridor'
p2578
F0.177196
sg12
F1472147861.6214693
sS'lounge - tv'
p2579
F0.0
sS'kitchen - fridge'
p2580
F0.0
sg15
I738
sS'bathroom corridor'
p2581
F0.0
sS'kitchen'
p2582
F0.0
sa(dp2583
S'lounge'
p2584
F0.0
sS'entrance'
p2585
F0.0
sS'workzone T'
p2586
F0.629459
sS'workzone P'
p2587
F0.000494943
sS'lounge - sofas'
p2588
F0.0
sS'workzone Y'
p2589
F0.191971
sS'entrance corridor'
p2590
F0.0
sS'workzone G'
p2591
F0.000878125
sS'kitchen - coffee'
p2592
F0.0
sS'workzone corridor'
p2593
F0.177196
sg12
F1472147863.624474
sS'lounge - tv'
p2594
F0.0
sS'kitchen - fridge'
p2595
F0.0
sg15
I738
sS'bathroom corridor'
p2596
F0.0
sS'kitchen'
p2597
F0.0
sa(dp2598
S'lounge'
p2599
F0.0
sS'entrance'
p2600
F0.0
sS'workzone T'
p2601
F0.629459
sS'workzone P'
p2602
F0.000494943
sS'lounge - sofas'
p2603
F0.0
sS'workzone Y'
p2604
F0.191971
sS'entrance corridor'
p2605
F0.0
sS'workzone G'
p2606
F0.000878125
sS'kitchen - coffee'
p2607
F0.0
sS'workzone corridor'
p2608
F0.177196
sg12
F1472147865.6185396
sS'lounge - tv'
p2609
F0.0
sS'kitchen - fridge'
p2610
F0.0
sg15
I738
sS'bathroom corridor'
p2611
F0.0
sS'kitchen'
p2612
F0.0
sa(dp2613
S'lounge'
p2614
F0.0
sS'entrance'
p2615
F0.0
sS'workzone T'
p2616
F0.629459
sS'workzone P'
p2617
F0.000494943
sS'lounge - sofas'
p2618
F0.0
sS'workzone Y'
p2619
F0.191971
sS'entrance corridor'
p2620
F0.0
sS'workzone G'
p2621
F0.000878125
sS'kitchen - coffee'
p2622
F0.0
sS'workzone corridor'
p2623
F0.177196
sg12
F1472147867.6312702
sS'lounge - tv'
p2624
F0.0
sS'kitchen - fridge'
p2625
F0.0
sg15
I738
sS'bathroom corridor'
p2626
F0.0
sS'kitchen'
p2627
F0.0
sa(dp2628
S'lounge'
p2629
F0.0
sS'entrance'
p2630
F0.0
sS'workzone T'
p2631
F0.629459
sS'workzone P'
p2632
F0.000494943
sS'lounge - sofas'
p2633
F0.0
sS'workzone Y'
p2634
F0.191971
sS'entrance corridor'
p2635
F0.0
sS'workzone G'
p2636
F0.000878125
sS'kitchen - coffee'
p2637
F0.0
sS'workzone corridor'
p2638
F0.177196
sg12
F1472147869.6247287
sS'lounge - tv'
p2639
F0.0
sS'kitchen - fridge'
p2640
F0.0
sg15
I738
sS'bathroom corridor'
p2641
F0.0
sS'kitchen'
p2642
F0.0
sa(dp2643
S'lounge'
p2644
F0.0
sS'entrance'
p2645
F0.0
sS'workzone T'
p2646
F0.629459
sS'workzone P'
p2647
F0.000494943
sS'lounge - sofas'
p2648
F0.0
sS'workzone Y'
p2649
F0.191971
sS'entrance corridor'
p2650
F0.0
sS'workzone G'
p2651
F0.000878125
sS'kitchen - coffee'
p2652
F0.0
sS'workzone corridor'
p2653
F0.177196
sg12
F1472147871.6179519
sS'lounge - tv'
p2654
F0.0
sS'kitchen - fridge'
p2655
F0.0
sg15
I738
sS'bathroom corridor'
p2656
F0.0
sS'kitchen'
p2657
F0.0
sa(dp2658
S'lounge'
p2659
F0.0
sS'entrance'
p2660
F0.0
sS'workzone T'
p2661
F0.629459
sS'workzone P'
p2662
F0.000494943
sS'lounge - sofas'
p2663
F0.0
sS'workzone Y'
p2664
F0.191971
sS'entrance corridor'
p2665
F0.0
sS'workzone G'
p2666
F0.000878125
sS'kitchen - coffee'
p2667
F0.0
sS'workzone corridor'
p2668
F0.177196
sg12
F1472147873.6256523
sS'lounge - tv'
p2669
F0.0
sS'kitchen - fridge'
p2670
F0.0
sg15
I738
sS'bathroom corridor'
p2671
F0.0
sS'kitchen'
p2672
F0.0
sa(dp2673
S'lounge'
p2674
F0.0
sS'entrance'
p2675
F0.0
sS'workzone T'
p2676
F0.629459
sS'workzone P'
p2677
F0.000494943
sS'lounge - sofas'
p2678
F0.0
sS'workzone Y'
p2679
F0.191971
sS'entrance corridor'
p2680
F0.0
sS'workzone G'
p2681
F0.000878125
sS'kitchen - coffee'
p2682
F0.0
sS'workzone corridor'
p2683
F0.177196
sg12
F1472147875.621235
sS'lounge - tv'
p2684
F0.0
sS'kitchen - fridge'
p2685
F0.0
sg15
I738
sS'bathroom corridor'
p2686
F0.0
sS'kitchen'
p2687
F0.0
sa(dp2688
S'lounge'
p2689
F0.0
sS'entrance'
p2690
F0.0
sS'workzone T'
p2691
F0.629459
sS'workzone P'
p2692
F0.000494943
sS'lounge - sofas'
p2693
F0.0
sS'workzone Y'
p2694
F0.191971
sS'entrance corridor'
p2695
F0.0
sS'workzone G'
p2696
F0.000878125
sS'kitchen - coffee'
p2697
F0.0
sS'workzone corridor'
p2698
F0.177196
sg12
F1472147877.635249
sS'lounge - tv'
p2699
F0.0
sS'kitchen - fridge'
p2700
F0.0
sg15
I738
sS'bathroom corridor'
p2701
F0.0
sS'kitchen'
p2702
F0.0
sa(dp2703
S'lounge'
p2704
F0.0
sS'entrance'
p2705
F0.0
sS'workzone T'
p2706
F0.629459
sS'workzone P'
p2707
F0.000494943
sS'lounge - sofas'
p2708
F0.0
sS'workzone Y'
p2709
F0.191971
sS'entrance corridor'
p2710
F0.0
sS'workzone G'
p2711
F0.000878125
sS'kitchen - coffee'
p2712
F0.0
sS'workzone corridor'
p2713
F0.177196
sg12
F1472147879.617537
sS'lounge - tv'
p2714
F0.0
sS'kitchen - fridge'
p2715
F0.0
sg15
I738
sS'bathroom corridor'
p2716
F0.0
sS'kitchen'
p2717
F0.0
sa(dp2718
S'lounge'
p2719
F0.0
sS'entrance'
p2720
F0.0
sS'workzone T'
p2721
F0.629459
sS'workzone P'
p2722
F0.000494943
sS'lounge - sofas'
p2723
F0.0
sS'workzone Y'
p2724
F0.191971
sS'entrance corridor'
p2725
F0.0
sS'workzone G'
p2726
F0.000878125
sS'kitchen - coffee'
p2727
F0.0
sS'workzone corridor'
p2728
F0.177196
sg12
F1472147881.620096
sS'lounge - tv'
p2729
F0.0
sS'kitchen - fridge'
p2730
F0.0
sg15
I738
sS'bathroom corridor'
p2731
F0.0
sS'kitchen'
p2732
F0.0
sa(dp2733
S'lounge'
p2734
F0.0
sS'entrance'
p2735
F0.0
sS'workzone T'
p2736
F0.629459
sS'workzone P'
p2737
F0.000494943
sS'lounge - sofas'
p2738
F0.0
sS'workzone Y'
p2739
F0.191971
sS'entrance corridor'
p2740
F0.0
sS'workzone G'
p2741
F0.000878125
sS'kitchen - coffee'
p2742
F0.0
sS'workzone corridor'
p2743
F0.177196
sg12
F1472147883.6225286
sS'lounge - tv'
p2744
F0.0
sS'kitchen - fridge'
p2745
F0.0
sg15
I738
sS'bathroom corridor'
p2746
F0.0
sS'kitchen'
p2747
F0.0
sa(dp2748
S'lounge'
p2749
F0.0
sS'entrance'
p2750
F0.0
sS'workzone T'
p2751
F0.629459
sS'workzone P'
p2752
F0.000494943
sS'lounge - sofas'
p2753
F0.0
sS'workzone Y'
p2754
F0.191971
sS'entrance corridor'
p2755
F0.0
sS'workzone G'
p2756
F0.000878125
sS'kitchen - coffee'
p2757
F0.0
sS'workzone corridor'
p2758
F0.177196
sg12
F1472147885.6251874
sS'lounge - tv'
p2759
F0.0
sS'kitchen - fridge'
p2760
F0.0
sg15
I738
sS'bathroom corridor'
p2761
F0.0
sS'kitchen'
p2762
F0.0
sa(dp2763
S'lounge'
p2764
F0.0
sS'entrance'
p2765
F0.0
sS'workzone T'
p2766
F0.629459
sS'workzone P'
p2767
F0.000494943
sS'lounge - sofas'
p2768
F0.0
sS'workzone Y'
p2769
F0.191971
sS'entrance corridor'
p2770
F0.0
sS'workzone G'
p2771
F0.000878125
sS'kitchen - coffee'
p2772
F0.0
sS'workzone corridor'
p2773
F0.177196
sg12
F1472147887.6406853
sS'lounge - tv'
p2774
F0.0
sS'kitchen - fridge'
p2775
F0.0
sg15
I738
sS'bathroom corridor'
p2776
F0.0
sS'kitchen'
p2777
F0.0
sa(dp2778
S'lounge'
p2779
F0.0
sS'entrance'
p2780
F0.0
sS'workzone T'
p2781
F0.629459
sS'workzone P'
p2782
F0.000494943
sS'lounge - sofas'
p2783
F0.0
sS'workzone Y'
p2784
F0.191971
sS'entrance corridor'
p2785
F0.0
sS'workzone G'
p2786
F0.000878125
sS'kitchen - coffee'
p2787
F0.0
sS'workzone corridor'
p2788
F0.177196
sg12
F1472147889.6256793
sS'lounge - tv'
p2789
F0.0
sS'kitchen - fridge'
p2790
F0.0
sg15
I738
sS'bathroom corridor'
p2791
F0.0
sS'kitchen'
p2792
F0.0
sa(dp2793
S'lounge'
p2794
F0.0
sS'entrance'
p2795
F0.0
sS'workzone T'
p2796
F0.629459
sS'workzone P'
p2797
F0.000494943
sS'lounge - sofas'
p2798
F0.0
sS'workzone Y'
p2799
F0.191971
sS'entrance corridor'
p2800
F0.0
sS'workzone G'
p2801
F0.000878125
sS'kitchen - coffee'
p2802
F0.0
sS'workzone corridor'
p2803
F0.177196
sg12
F1472147891.6199675
sS'lounge - tv'
p2804
F0.0
sS'kitchen - fridge'
p2805
F0.0
sg15
I738
sS'bathroom corridor'
p2806
F0.0
sS'kitchen'
p2807
F0.0
sa(dp2808
S'lounge'
p2809
F0.0
sS'entrance'
p2810
F0.0
sS'workzone T'
p2811
F0.629459
sS'workzone P'
p2812
F0.000494943
sS'lounge - sofas'
p2813
F0.0
sS'workzone Y'
p2814
F0.191971
sS'entrance corridor'
p2815
F0.0
sS'workzone G'
p2816
F0.000878125
sS'kitchen - coffee'
p2817
F0.0
sS'workzone corridor'
p2818
F0.177196
sg12
F1472147893.6253397
sS'lounge - tv'
p2819
F0.0
sS'kitchen - fridge'
p2820
F0.0
sg15
I738
sS'bathroom corridor'
p2821
F0.0
sS'kitchen'
p2822
F0.0
sa(dp2823
S'lounge'
p2824
F0.0
sS'entrance'
p2825
F0.0
sS'workzone T'
p2826
F0.629459
sS'workzone P'
p2827
F0.000494943
sS'lounge - sofas'
p2828
F0.0
sS'workzone Y'
p2829
F0.191971
sS'entrance corridor'
p2830
F0.0
sS'workzone G'
p2831
F0.000878125
sS'kitchen - coffee'
p2832
F0.0
sS'workzone corridor'
p2833
F0.177196
sg12
F1472147895.6206436
sS'lounge - tv'
p2834
F0.0
sS'kitchen - fridge'
p2835
F0.0
sg15
I738
sS'bathroom corridor'
p2836
F0.0
sS'kitchen'
p2837
F0.0
sa(dp2838
S'lounge'
p2839
F0.0
sS'entrance'
p2840
F0.0
sS'workzone T'
p2841
F0.629459
sS'workzone P'
p2842
F0.000494943
sS'lounge - sofas'
p2843
F0.0
sS'workzone Y'
p2844
F0.191971
sS'entrance corridor'
p2845
F0.0
sS'workzone G'
p2846
F0.000878125
sS'kitchen - coffee'
p2847
F0.0
sS'workzone corridor'
p2848
F0.177196
sg12
F1472147897.6357493
sS'lounge - tv'
p2849
F0.0
sS'kitchen - fridge'
p2850
F0.0
sg15
I738
sS'bathroom corridor'
p2851
F0.0
sS'kitchen'
p2852
F0.0
sa(dp2853
S'lounge'
p2854
F0.0
sS'entrance'
p2855
F0.0
sS'workzone T'
p2856
F0.629459
sS'workzone P'
p2857
F0.000494943
sS'lounge - sofas'
p2858
F0.0
sS'workzone Y'
p2859
F0.191971
sS'entrance corridor'
p2860
F0.0
sS'workzone G'
p2861
F0.000878125
sS'kitchen - coffee'
p2862
F0.0
sS'workzone corridor'
p2863
F0.177196
sg12
F1472147899.6204548
sS'lounge - tv'
p2864
F0.0
sS'kitchen - fridge'
p2865
F0.0
sg15
I738
sS'bathroom corridor'
p2866
F0.0
sS'kitchen'
p2867
F0.0
sa(dp2868
S'lounge'
p2869
F0.0
sS'entrance'
p2870
F0.0
sS'workzone T'
p2871
F0.629459
sS'workzone P'
p2872
F0.000494943
sS'lounge - sofas'
p2873
F0.0
sS'workzone Y'
p2874
F0.191971
sS'entrance corridor'
p2875
F0.0
sS'workzone G'
p2876
F0.000878125
sS'kitchen - coffee'
p2877
F0.0
sS'workzone corridor'
p2878
F0.177196
sg12
F1472147901.6240854
sS'lounge - tv'
p2879
F0.0
sS'kitchen - fridge'
p2880
F0.0
sg15
I738
sS'bathroom corridor'
p2881
F0.0
sS'kitchen'
p2882
F0.0
sa(dp2883
S'lounge'
p2884
F0.0
sS'entrance'
p2885
F0.0
sS'workzone T'
p2886
F0.629459
sS'workzone P'
p2887
F0.000494943
sS'lounge - sofas'
p2888
F0.0
sS'workzone Y'
p2889
F0.191971
sS'entrance corridor'
p2890
F0.0
sS'workzone G'
p2891
F0.000878125
sS'kitchen - coffee'
p2892
F0.0
sS'workzone corridor'
p2893
F0.177196
sg12
F1472147903.6187515
sS'lounge - tv'
p2894
F0.0
sS'kitchen - fridge'
p2895
F0.0
sg15
I738
sS'bathroom corridor'
p2896
F0.0
sS'kitchen'
p2897
F0.0
sa(dp2898
S'lounge'
p2899
F0.0
sS'entrance'
p2900
F0.0
sS'workzone T'
p2901
F0.629459
sS'workzone P'
p2902
F0.000494943
sS'lounge - sofas'
p2903
F0.0
sS'workzone Y'
p2904
F0.191971
sS'entrance corridor'
p2905
F0.0
sS'workzone G'
p2906
F0.000878125
sS'kitchen - coffee'
p2907
F0.0
sS'workzone corridor'
p2908
F0.177196
sg12
F1472147905.6234603
sS'lounge - tv'
p2909
F0.0
sS'kitchen - fridge'
p2910
F0.0
sg15
I738
sS'bathroom corridor'
p2911
F0.0
sS'kitchen'
p2912
F0.0
sa(dp2913
S'lounge'
p2914
F0.0
sS'entrance'
p2915
F0.0
sS'workzone T'
p2916
F0.629459
sS'workzone P'
p2917
F0.000494943
sS'lounge - sofas'
p2918
F0.0
sS'workzone Y'
p2919
F0.191971
sS'entrance corridor'
p2920
F0.0
sS'workzone G'
p2921
F0.000878125
sS'kitchen - coffee'
p2922
F0.0
sS'workzone corridor'
p2923
F0.177196
sg12
F1472147907.6363015
sS'lounge - tv'
p2924
F0.0
sS'kitchen - fridge'
p2925
F0.0
sg15
I738
sS'bathroom corridor'
p2926
F0.0
sS'kitchen'
p2927
F0.0
sa(dp2928
S'lounge'
p2929
F0.0
sS'entrance'
p2930
F0.0
sS'workzone T'
p2931
F0.629459
sS'workzone P'
p2932
F0.000494943
sS'lounge - sofas'
p2933
F0.0
sS'workzone Y'
p2934
F0.191971
sS'entrance corridor'
p2935
F0.0
sS'workzone G'
p2936
F0.000878125
sS'kitchen - coffee'
p2937
F0.0
sS'workzone corridor'
p2938
F0.177196
sg12
F1472147909.6180196
sS'lounge - tv'
p2939
F0.0
sS'kitchen - fridge'
p2940
F0.0
sg15
I738
sS'bathroom corridor'
p2941
F0.0
sS'kitchen'
p2942
F0.0
sa(dp2943
S'lounge'
p2944
F0.0
sS'entrance'
p2945
F0.0
sS'workzone T'
p2946
F0.629459
sS'workzone P'
p2947
F0.000494943
sS'lounge - sofas'
p2948
F0.0
sS'workzone Y'
p2949
F0.191971
sS'entrance corridor'
p2950
F0.0
sS'workzone G'
p2951
F0.000878125
sS'kitchen - coffee'
p2952
F0.0
sS'workzone corridor'
p2953
F0.177196
sg12
F1472147911.6231172
sS'lounge - tv'
p2954
F0.0
sS'kitchen - fridge'
p2955
F0.0
sg15
I738
sS'bathroom corridor'
p2956
F0.0
sS'kitchen'
p2957
F0.0
sa(dp2958
S'lounge'
p2959
F0.0
sS'entrance'
p2960
F0.0
sS'workzone T'
p2961
F0.629459
sS'workzone P'
p2962
F0.000494943
sS'lounge - sofas'
p2963
F0.0
sS'workzone Y'
p2964
F0.191971
sS'entrance corridor'
p2965
F0.0
sS'workzone G'
p2966
F0.000878125
sS'kitchen - coffee'
p2967
F0.0
sS'workzone corridor'
p2968
F0.177196
sg12
F1472147913.6177645
sS'lounge - tv'
p2969
F0.0
sS'kitchen - fridge'
p2970
F0.0
sg15
I738
sS'bathroom corridor'
p2971
F0.0
sS'kitchen'
p2972
F0.0
sa(dp2973
S'lounge'
p2974
F0.0
sS'entrance'
p2975
F0.0
sS'workzone T'
p2976
F0.629459
sS'workzone P'
p2977
F0.000494943
sS'lounge - sofas'
p2978
F0.0
sS'workzone Y'
p2979
F0.191971
sS'entrance corridor'
p2980
F0.0
sS'workzone G'
p2981
F0.000878125
sS'kitchen - coffee'
p2982
F0.0
sS'workzone corridor'
p2983
F0.177196
sg12
F1472147915.6197379
sS'lounge - tv'
p2984
F0.0
sS'kitchen - fridge'
p2985
F0.0
sg15
I738
sS'bathroom corridor'
p2986
F0.0
sS'kitchen'
p2987
F0.0
sa(dp2988
S'lounge'
p2989
F0.0
sS'entrance'
p2990
F0.0
sS'workzone T'
p2991
F0.629459
sS'workzone P'
p2992
F0.000494943
sS'lounge - sofas'
p2993
F0.0
sS'workzone Y'
p2994
F0.191971
sS'entrance corridor'
p2995
F0.0
sS'workzone G'
p2996
F0.000878125
sS'kitchen - coffee'
p2997
F0.0
sS'workzone corridor'
p2998
F0.177196
sg12
F1472147917.6381733
sS'lounge - tv'
p2999
F0.0
sS'kitchen - fridge'
p3000
F0.0
sg15
I738
sS'bathroom corridor'
p3001
F0.0
sS'kitchen'
p3002
F0.0
sa(dp3003
S'lounge'
p3004
F0.0
sS'entrance'
p3005
F0.0
sS'workzone T'
p3006
F0.629459
sS'workzone P'
p3007
F0.000494943
sS'lounge - sofas'
p3008
F0.0
sS'workzone Y'
p3009
F0.191971
sS'entrance corridor'
p3010
F0.0
sS'workzone G'
p3011
F0.000878125
sS'kitchen - coffee'
p3012
F0.0
sS'workzone corridor'
p3013
F0.177196
sg12
F1472147919.6188745
sS'lounge - tv'
p3014
F0.0
sS'kitchen - fridge'
p3015
F0.0
sg15
I738
sS'bathroom corridor'
p3016
F0.0
sS'kitchen'
p3017
F0.0
sa(dp3018
S'lounge'
p3019
F0.0
sS'entrance'
p3020
F0.0
sS'workzone T'
p3021
F0.629459
sS'workzone P'
p3022
F0.000494943
sS'lounge - sofas'
p3023
F0.0
sS'workzone Y'
p3024
F0.191971
sS'entrance corridor'
p3025
F0.0
sS'workzone G'
p3026
F0.000878125
sS'kitchen - coffee'
p3027
F0.0
sS'workzone corridor'
p3028
F0.177196
sg12
F1472147921.6222093
sS'lounge - tv'
p3029
F0.0
sS'kitchen - fridge'
p3030
F0.0
sg15
I738
sS'bathroom corridor'
p3031
F0.0
sS'kitchen'
p3032
F0.0
sa(dp3033
S'lounge'
p3034
F0.0
sS'entrance'
p3035
F0.0
sS'workzone T'
p3036
F0.629459
sS'workzone P'
p3037
F0.000494943
sS'lounge - sofas'
p3038
F0.0
sS'workzone Y'
p3039
F0.191971
sS'entrance corridor'
p3040
F0.0
sS'workzone G'
p3041
F0.000878125
sS'kitchen - coffee'
p3042
F0.0
sS'workzone corridor'
p3043
F0.177196
sg12
F1472147923.617238
sS'lounge - tv'
p3044
F0.0
sS'kitchen - fridge'
p3045
F0.0
sg15
I738
sS'bathroom corridor'
p3046
F0.0
sS'kitchen'
p3047
F0.0
sa(dp3048
S'lounge'
p3049
F0.0
sS'entrance'
p3050
F0.0
sS'workzone T'
p3051
F0.629459
sS'workzone P'
p3052
F0.000494943
sS'lounge - sofas'
p3053
F0.0
sS'workzone Y'
p3054
F0.191971
sS'entrance corridor'
p3055
F0.0
sS'workzone G'
p3056
F0.000878125
sS'kitchen - coffee'
p3057
F0.0
sS'workzone corridor'
p3058
F0.177196
sg12
F1472147925.624048
sS'lounge - tv'
p3059
F0.0
sS'kitchen - fridge'
p3060
F0.0
sg15
I738
sS'bathroom corridor'
p3061
F0.0
sS'kitchen'
p3062
F0.0
sa(dp3063
S'lounge'
p3064
F0.0
sS'entrance'
p3065
F0.0
sS'workzone T'
p3066
F0.629459
sS'workzone P'
p3067
F0.000494943
sS'lounge - sofas'
p3068
F0.0
sS'workzone Y'
p3069
F0.191971
sS'entrance corridor'
p3070
F0.0
sS'workzone G'
p3071
F0.000878125
sS'kitchen - coffee'
p3072
F0.0
sS'workzone corridor'
p3073
F0.177196
sg12
F1472147927.6289673
sS'lounge - tv'
p3074
F0.0
sS'kitchen - fridge'
p3075
F0.0
sg15
I738
sS'bathroom corridor'
p3076
F0.0
sS'kitchen'
p3077
F0.0
sa(dp3078
S'lounge'
p3079
F0.0
sS'entrance'
p3080
F0.0
sS'workzone T'
p3081
F0.629459
sS'workzone P'
p3082
F0.000494943
sS'lounge - sofas'
p3083
F0.0
sS'workzone Y'
p3084
F0.191971
sS'entrance corridor'
p3085
F0.0
sS'workzone G'
p3086
F0.000878125
sS'kitchen - coffee'
p3087
F0.0
sS'workzone corridor'
p3088
F0.177196
sg12
F1472147929.6217468
sS'lounge - tv'
p3089
F0.0
sS'kitchen - fridge'
p3090
F0.0
sg15
I738
sS'bathroom corridor'
p3091
F0.0
sS'kitchen'
p3092
F0.0
sa(dp3093
S'lounge'
p3094
F0.0
sS'entrance'
p3095
F0.0
sS'workzone T'
p3096
F0.629459
sS'workzone P'
p3097
F0.000494943
sS'lounge - sofas'
p3098
F0.0
sS'workzone Y'
p3099
F0.191971
sS'entrance corridor'
p3100
F0.0
sS'workzone G'
p3101
F0.000878125
sS'kitchen - coffee'
p3102
F0.0
sS'workzone corridor'
p3103
F0.177196
sg12
F1472147931.6254306
sS'lounge - tv'
p3104
F0.0
sS'kitchen - fridge'
p3105
F0.0
sg15
I738
sS'bathroom corridor'
p3106
F0.0
sS'kitchen'
p3107
F0.0
sa(dp3108
S'lounge'
p3109
F0.0
sS'entrance'
p3110
F0.0
sS'workzone T'
p3111
F0.629459
sS'workzone P'
p3112
F0.000494943
sS'lounge - sofas'
p3113
F0.0
sS'workzone Y'
p3114
F0.191971
sS'entrance corridor'
p3115
F0.0
sS'workzone G'
p3116
F0.000878125
sS'kitchen - coffee'
p3117
F0.0
sS'workzone corridor'
p3118
F0.177196
sg12
F1472147933.618316
sS'lounge - tv'
p3119
F0.0
sS'kitchen - fridge'
p3120
F0.0
sg15
I738
sS'bathroom corridor'
p3121
F0.0
sS'kitchen'
p3122
F0.0
sa(dp3123
S'lounge'
p3124
F0.0
sS'entrance'
p3125
F0.0
sS'workzone T'
p3126
F0.629459
sS'workzone P'
p3127
F0.000494943
sS'lounge - sofas'
p3128
F0.0
sS'workzone Y'
p3129
F0.191971
sS'entrance corridor'
p3130
F0.0
sS'workzone G'
p3131
F0.000878125
sS'kitchen - coffee'
p3132
F0.0
sS'workzone corridor'
p3133
F0.177196
sg12
F1472147935.6228406
sS'lounge - tv'
p3134
F0.0
sS'kitchen - fridge'
p3135
F0.0
sg15
I738
sS'bathroom corridor'
p3136
F0.0
sS'kitchen'
p3137
F0.0
sa(dp3138
S'lounge'
p3139
F0.0
sS'entrance'
p3140
F0.0
sS'workzone T'
p3141
F0.629459
sS'workzone P'
p3142
F0.000494943
sS'lounge - sofas'
p3143
F0.0
sS'workzone Y'
p3144
F0.191971
sS'entrance corridor'
p3145
F0.0
sS'workzone G'
p3146
F0.000878125
sS'kitchen - coffee'
p3147
F0.0
sS'workzone corridor'
p3148
F0.177196
sg12
F1472147937.6386266
sS'lounge - tv'
p3149
F0.0
sS'kitchen - fridge'
p3150
F0.0
sg15
I738
sS'bathroom corridor'
p3151
F0.0
sS'kitchen'
p3152
F0.0
sa(dp3153
S'lounge'
p3154
F0.0
sS'entrance'
p3155
F0.0
sS'workzone T'
p3156
F0.629459
sS'workzone P'
p3157
F0.000494943
sS'lounge - sofas'
p3158
F0.0
sS'workzone Y'
p3159
F0.191971
sS'entrance corridor'
p3160
F0.0
sS'workzone G'
p3161
F0.000878125
sS'kitchen - coffee'
p3162
F0.0
sS'workzone corridor'
p3163
F0.177196
sg12
F1472147939.620931
sS'lounge - tv'
p3164
F0.0
sS'kitchen - fridge'
p3165
F0.0
sg15
I738
sS'bathroom corridor'
p3166
F0.0
sS'kitchen'
p3167
F0.0
sa(dp3168
S'lounge'
p3169
F0.0
sS'entrance'
p3170
F0.0
sS'workzone T'
p3171
F0.629459
sS'workzone P'
p3172
F0.000494943
sS'lounge - sofas'
p3173
F0.0
sS'workzone Y'
p3174
F0.191971
sS'entrance corridor'
p3175
F0.0
sS'workzone G'
p3176
F0.000878125
sS'kitchen - coffee'
p3177
F0.0
sS'workzone corridor'
p3178
F0.177196
sg12
F1472147941.6256986
sS'lounge - tv'
p3179
F0.0
sS'kitchen - fridge'
p3180
F0.0
sg15
I738
sS'bathroom corridor'
p3181
F0.0
sS'kitchen'
p3182
F0.0
sa(dp3183
S'lounge'
p3184
F0.0
sS'entrance'
p3185
F0.0
sS'workzone T'
p3186
F0.629459
sS'workzone P'
p3187
F0.000494943
sS'lounge - sofas'
p3188
F0.0
sS'workzone Y'
p3189
F0.191971
sS'entrance corridor'
p3190
F0.0
sS'workzone G'
p3191
F0.000878125
sS'kitchen - coffee'
p3192
F0.0
sS'workzone corridor'
p3193
F0.177196
sg12
F1472147943.61913
sS'lounge - tv'
p3194
F0.0
sS'kitchen - fridge'
p3195
F0.0
sg15
I738
sS'bathroom corridor'
p3196
F0.0
sS'kitchen'
p3197
F0.0
sa(dp3198
S'lounge'
p3199
F0.0
sS'entrance'
p3200
F0.0
sS'workzone T'
p3201
F0.629459
sS'workzone P'
p3202
F0.000494943
sS'lounge - sofas'
p3203
F0.0
sS'workzone Y'
p3204
F0.191971
sS'entrance corridor'
p3205
F0.0
sS'workzone G'
p3206
F0.000878125
sS'kitchen - coffee'
p3207
F0.0
sS'workzone corridor'
p3208
F0.177196
sg12
F1472147945.6225884
sS'lounge - tv'
p3209
F0.0
sS'kitchen - fridge'
p3210
F0.0
sg15
I738
sS'bathroom corridor'
p3211
F0.0
sS'kitchen'
p3212
F0.0
sa(dp3213
S'lounge'
p3214
F0.0
sS'entrance'
p3215
F0.0
sS'workzone T'
p3216
F0.629459
sS'workzone P'
p3217
F0.000494943
sS'lounge - sofas'
p3218
F0.0
sS'workzone Y'
p3219
F0.191971
sS'entrance corridor'
p3220
F0.0
sS'workzone G'
p3221
F0.000878125
sS'kitchen - coffee'
p3222
F0.0
sS'workzone corridor'
p3223
F0.177196
sg12
F1472147947.6394205
sS'lounge - tv'
p3224
F0.0
sS'kitchen - fridge'
p3225
F0.0
sg15
I738
sS'bathroom corridor'
p3226
F0.0
sS'kitchen'
p3227
F0.0
sa(dp3228
S'lounge'
p3229
F0.0
sS'entrance'
p3230
F0.0
sS'workzone T'
p3231
F0.629459
sS'workzone P'
p3232
F0.000494943
sS'lounge - sofas'
p3233
F0.0
sS'workzone Y'
p3234
F0.191971
sS'entrance corridor'
p3235
F0.0
sS'workzone G'
p3236
F0.000878125
sS'kitchen - coffee'
p3237
F0.0
sS'workzone corridor'
p3238
F0.177196
sg12
F1472147949.620952
sS'lounge - tv'
p3239
F0.0
sS'kitchen - fridge'
p3240
F0.0
sg15
I738
sS'bathroom corridor'
p3241
F0.0
sS'kitchen'
p3242
F0.0
sa(dp3243
S'lounge'
p3244
F0.0
sS'entrance'
p3245
F0.0
sS'workzone T'
p3246
F0.629459
sS'workzone P'
p3247
F0.000494943
sS'lounge - sofas'
p3248
F0.0
sS'workzone Y'
p3249
F0.191971
sS'entrance corridor'
p3250
F0.0
sS'workzone G'
p3251
F0.000878125
sS'kitchen - coffee'
p3252
F0.0
sS'workzone corridor'
p3253
F0.177196
sg12
F1472147951.6166196
sS'lounge - tv'
p3254
F0.0
sS'kitchen - fridge'
p3255
F0.0
sg15
I738
sS'bathroom corridor'
p3256
F0.0
sS'kitchen'
p3257
F0.0
sa(dp3258
S'lounge'
p3259
F0.0
sS'entrance'
p3260
F0.0
sS'workzone T'
p3261
F0.629459
sS'workzone P'
p3262
F0.000494943
sS'lounge - sofas'
p3263
F0.0
sS'workzone Y'
p3264
F0.191971
sS'entrance corridor'
p3265
F0.0
sS'workzone G'
p3266
F0.000878125
sS'kitchen - coffee'
p3267
F0.0
sS'workzone corridor'
p3268
F0.177196
sg12
F1472147953.6199112
sS'lounge - tv'
p3269
F0.0
sS'kitchen - fridge'
p3270
F0.0
sg15
I738
sS'bathroom corridor'
p3271
F0.0
sS'kitchen'
p3272
F0.0
sa(dp3273
S'lounge'
p3274
F0.0
sS'entrance'
p3275
F0.0
sS'workzone T'
p3276
F0.629459
sS'workzone P'
p3277
F0.000494943
sS'lounge - sofas'
p3278
F0.0
sS'workzone Y'
p3279
F0.191971
sS'entrance corridor'
p3280
F0.0
sS'workzone G'
p3281
F0.000878125
sS'kitchen - coffee'
p3282
F0.0
sS'workzone corridor'
p3283
F0.177196
sg12
F1472147955.6224415
sS'lounge - tv'
p3284
F0.0
sS'kitchen - fridge'
p3285
F0.0
sg15
I738
sS'bathroom corridor'
p3286
F0.0
sS'kitchen'
p3287
F0.0
sa(dp3288
S'lounge'
p3289
F0.0
sS'entrance'
p3290
F0.0
sS'workzone T'
p3291
F0.629459
sS'workzone P'
p3292
F0.000494943
sS'lounge - sofas'
p3293
F0.0
sS'workzone Y'
p3294
F0.191971
sS'entrance corridor'
p3295
F0.0
sS'workzone G'
p3296
F0.000878125
sS'kitchen - coffee'
p3297
F0.0
sS'workzone corridor'
p3298
F0.177196
sg12
F1472147957.6350074
sS'lounge - tv'
p3299
F0.0
sS'kitchen - fridge'
p3300
F0.0
sg15
I738
sS'bathroom corridor'
p3301
F0.0
sS'kitchen'
p3302
F0.0
sa(dp3303
S'lounge'
p3304
F0.0
sS'entrance'
p3305
F0.0
sS'workzone T'
p3306
F0.629459
sS'workzone P'
p3307
F0.000494943
sS'lounge - sofas'
p3308
F0.0
sS'workzone Y'
p3309
F0.191971
sS'entrance corridor'
p3310
F0.0
sS'workzone G'
p3311
F0.000878125
sS'kitchen - coffee'
p3312
F0.0
sS'workzone corridor'
p3313
F0.177196
sg12
F1472147959.6181893
sS'lounge - tv'
p3314
F0.0
sS'kitchen - fridge'
p3315
F0.0
sg15
I738
sS'bathroom corridor'
p3316
F0.0
sS'kitchen'
p3317
F0.0
sa(dp3318
S'lounge'
p3319
F0.0
sS'entrance'
p3320
F0.0
sS'workzone T'
p3321
F0.629459
sS'workzone P'
p3322
F0.000494943
sS'lounge - sofas'
p3323
F0.0
sS'workzone Y'
p3324
F0.191971
sS'entrance corridor'
p3325
F0.0
sS'workzone G'
p3326
F0.000878125
sS'kitchen - coffee'
p3327
F0.0
sS'workzone corridor'
p3328
F0.177196
sg12
F1472147961.6229777
sS'lounge - tv'
p3329
F0.0
sS'kitchen - fridge'
p3330
F0.0
sg15
I738
sS'bathroom corridor'
p3331
F0.0
sS'kitchen'
p3332
F0.0
sa(dp3333
S'lounge'
p3334
F0.0
sS'entrance'
p3335
F0.0
sS'workzone T'
p3336
F0.629459
sS'workzone P'
p3337
F0.000494943
sS'lounge - sofas'
p3338
F0.0
sS'workzone Y'
p3339
F0.191971
sS'entrance corridor'
p3340
F0.0
sS'workzone G'
p3341
F0.000878125
sS'kitchen - coffee'
p3342
F0.0
sS'workzone corridor'
p3343
F0.177196
sg12
F1472147963.6176116
sS'lounge - tv'
p3344
F0.0
sS'kitchen - fridge'
p3345
F0.0
sg15
I738
sS'bathroom corridor'
p3346
F0.0
sS'kitchen'
p3347
F0.0
sa(dp3348
S'lounge'
p3349
F0.0
sS'entrance'
p3350
F0.0
sS'workzone T'
p3351
F0.629459
sS'workzone P'
p3352
F0.000494943
sS'lounge - sofas'
p3353
F0.0
sS'workzone Y'
p3354
F0.191971
sS'entrance corridor'
p3355
F0.0
sS'workzone G'
p3356
F0.000878125
sS'kitchen - coffee'
p3357
F0.0
sS'workzone corridor'
p3358
F0.177196
sg12
F1472147965.6228952
sS'lounge - tv'
p3359
F0.0
sS'kitchen - fridge'
p3360
F0.0
sg15
I738
sS'bathroom corridor'
p3361
F0.0
sS'kitchen'
p3362
F0.0
sa(dp3363
S'lounge'
p3364
F0.0
sS'entrance'
p3365
F0.0
sS'workzone T'
p3366
F0.629459
sS'workzone P'
p3367
F0.000494943
sS'lounge - sofas'
p3368
F0.0
sS'workzone Y'
p3369
F0.191971
sS'entrance corridor'
p3370
F0.0
sS'workzone G'
p3371
F0.000878125
sS'kitchen - coffee'
p3372
F0.0
sS'workzone corridor'
p3373
F0.177196
sg12
F1472147967.6275744
sS'lounge - tv'
p3374
F0.0
sS'kitchen - fridge'
p3375
F0.0
sg15
I738
sS'bathroom corridor'
p3376
F0.0
sS'kitchen'
p3377
F0.0
sa(dp3378
S'lounge'
p3379
F0.0
sS'entrance'
p3380
F0.0
sS'workzone T'
p3381
F0.629459
sS'workzone P'
p3382
F0.000494943
sS'lounge - sofas'
p3383
F0.0
sS'workzone Y'
p3384
F0.191971
sS'entrance corridor'
p3385
F0.0
sS'workzone G'
p3386
F0.000878125
sS'kitchen - coffee'
p3387
F0.0
sS'workzone corridor'
p3388
F0.177196
sg12
F1472147969.6225226
sS'lounge - tv'
p3389
F0.0
sS'kitchen - fridge'
p3390
F0.0
sg15
I738
sS'bathroom corridor'
p3391
F0.0
sS'kitchen'
p3392
F0.0
sa(dp3393
S'lounge'
p3394
F0.0
sS'entrance'
p3395
F0.0
sS'workzone T'
p3396
F0.629459
sS'workzone P'
p3397
F0.000494943
sS'lounge - sofas'
p3398
F0.0
sS'workzone Y'
p3399
F0.191971
sS'entrance corridor'
p3400
F0.0
sS'workzone G'
p3401
F0.000878125
sS'kitchen - coffee'
p3402
F0.0
sS'workzone corridor'
p3403
F0.177196
sg12
F1472147971.6170115
sS'lounge - tv'
p3404
F0.0
sS'kitchen - fridge'
p3405
F0.0
sg15
I738
sS'bathroom corridor'
p3406
F0.0
sS'kitchen'
p3407
F0.0
sa(dp3408
S'lounge'
p3409
F0.0
sS'entrance'
p3410
F0.0
sS'workzone T'
p3411
F0.629459
sS'workzone P'
p3412
F0.000494943
sS'lounge - sofas'
p3413
F0.0
sS'workzone Y'
p3414
F0.191971
sS'entrance corridor'
p3415
F0.0
sS'workzone G'
p3416
F0.000878125
sS'kitchen - coffee'
p3417
F0.0
sS'workzone corridor'
p3418
F0.177196
sg12
F1472147973.6191692
sS'lounge - tv'
p3419
F0.0
sS'kitchen - fridge'
p3420
F0.0
sg15
I738
sS'bathroom corridor'
p3421
F0.0
sS'kitchen'
p3422
F0.0
sa(dp3423
S'lounge'
p3424
F0.0
sS'entrance'
p3425
F0.0
sS'workzone T'
p3426
F0.629459
sS'workzone P'
p3427
F0.000494943
sS'lounge - sofas'
p3428
F0.0
sS'workzone Y'
p3429
F0.191971
sS'entrance corridor'
p3430
F0.0
sS'workzone G'
p3431
F0.000878125
sS'kitchen - coffee'
p3432
F0.0
sS'workzone corridor'
p3433
F0.177196
sg12
F1472147975.621991
sS'lounge - tv'
p3434
F0.0
sS'kitchen - fridge'
p3435
F0.0
sg15
I738
sS'bathroom corridor'
p3436
F0.0
sS'kitchen'
p3437
F0.0
sa(dp3438
S'lounge'
p3439
F0.0
sS'entrance'
p3440
F0.0
sS'workzone T'
p3441
F0.629459
sS'workzone P'
p3442
F0.000494943
sS'lounge - sofas'
p3443
F0.0
sS'workzone Y'
p3444
F0.191971
sS'entrance corridor'
p3445
F0.0
sS'workzone G'
p3446
F0.000878125
sS'kitchen - coffee'
p3447
F0.0
sS'workzone corridor'
p3448
F0.177196
sg12
F1472147977.6264508
sS'lounge - tv'
p3449
F0.0
sS'kitchen - fridge'
p3450
F0.0
sg15
I738
sS'bathroom corridor'
p3451
F0.0
sS'kitchen'
p3452
F0.0
sa(dp3453
S'lounge'
p3454
F0.0
sS'entrance'
p3455
F0.0
sS'workzone T'
p3456
F0.629459
sS'workzone P'
p3457
F0.000494943
sS'lounge - sofas'
p3458
F0.0
sS'workzone Y'
p3459
F0.191971
sS'entrance corridor'
p3460
F0.0
sS'workzone G'
p3461
F0.000878125
sS'kitchen - coffee'
p3462
F0.0
sS'workzone corridor'
p3463
F0.177196
sg12
F1472147979.6188688
sS'lounge - tv'
p3464
F0.0
sS'kitchen - fridge'
p3465
F0.0
sg15
I738
sS'bathroom corridor'
p3466
F0.0
sS'kitchen'
p3467
F0.0
sa(dp3468
S'lounge'
p3469
F0.0
sS'entrance'
p3470
F0.0
sS'workzone T'
p3471
F0.629459
sS'workzone P'
p3472
F0.000494943
sS'lounge - sofas'
p3473
F0.0
sS'workzone Y'
p3474
F0.191971
sS'entrance corridor'
p3475
F0.0
sS'workzone G'
p3476
F0.000878125
sS'kitchen - coffee'
p3477
F0.0
sS'workzone corridor'
p3478
F0.177196
sg12
F1472147981.6207752
sS'lounge - tv'
p3479
F0.0
sS'kitchen - fridge'
p3480
F0.0
sg15
I738
sS'bathroom corridor'
p3481
F0.0
sS'kitchen'
p3482
F0.0
sa(dp3483
S'lounge'
p3484
F0.0
sS'entrance'
p3485
F0.0
sS'workzone T'
p3486
F0.629459
sS'workzone P'
p3487
F0.000494943
sS'lounge - sofas'
p3488
F0.0
sS'workzone Y'
p3489
F0.191971
sS'entrance corridor'
p3490
F0.0
sS'workzone G'
p3491
F0.000878125
sS'kitchen - coffee'
p3492
F0.0
sS'workzone corridor'
p3493
F0.177196
sg12
F1472147983.6235406
sS'lounge - tv'
p3494
F0.0
sS'kitchen - fridge'
p3495
F0.0
sg15
I738
sS'bathroom corridor'
p3496
F0.0
sS'kitchen'
p3497
F0.0
sa(dp3498
S'lounge'
p3499
F0.0
sS'entrance'
p3500
F0.0
sS'workzone T'
p3501
F0.629459
sS'workzone P'
p3502
F0.000494943
sS'lounge - sofas'
p3503
F0.0
sS'workzone Y'
p3504
F0.191971
sS'entrance corridor'
p3505
F0.0
sS'workzone G'
p3506
F0.000878125
sS'kitchen - coffee'
p3507
F0.0
sS'workzone corridor'
p3508
F0.177196
sg12
F1472147985.624641
sS'lounge - tv'
p3509
F0.0
sS'kitchen - fridge'
p3510
F0.0
sg15
I738
sS'bathroom corridor'
p3511
F0.0
sS'kitchen'
p3512
F0.0
sa(dp3513
S'lounge'
p3514
F0.0
sS'entrance'
p3515
F0.0
sS'workzone T'
p3516
F0.629459
sS'workzone P'
p3517
F0.000494943
sS'lounge - sofas'
p3518
F0.0
sS'workzone Y'
p3519
F0.191971
sS'entrance corridor'
p3520
F0.0
sS'workzone G'
p3521
F0.000878125
sS'kitchen - coffee'
p3522
F0.0
sS'workzone corridor'
p3523
F0.177196
sg12
F1472147987.627118
sS'lounge - tv'
p3524
F0.0
sS'kitchen - fridge'
p3525
F0.0
sg15
I738
sS'bathroom corridor'
p3526
F0.0
sS'kitchen'
p3527
F0.0
sa(dp3528
S'lounge'
p3529
F0.0
sS'entrance'
p3530
F0.0
sS'workzone T'
p3531
F0.629459
sS'workzone P'
p3532
F0.000494943
sS'lounge - sofas'
p3533
F0.0
sS'workzone Y'
p3534
F0.191971
sS'entrance corridor'
p3535
F0.0
sS'workzone G'
p3536
F0.000878125
sS'kitchen - coffee'
p3537
F0.0
sS'workzone corridor'
p3538
F0.177196
sg12
F1472147989.6180215
sS'lounge - tv'
p3539
F0.0
sS'kitchen - fridge'
p3540
F0.0
sg15
I738
sS'bathroom corridor'
p3541
F0.0
sS'kitchen'
p3542
F0.0
sa(dp3543
S'lounge'
p3544
F0.0
sS'entrance'
p3545
F0.0
sS'workzone T'
p3546
F0.629459
sS'workzone P'
p3547
F0.000494943
sS'lounge - sofas'
p3548
F0.0
sS'workzone Y'
p3549
F0.191971
sS'entrance corridor'
p3550
F0.0
sS'workzone G'
p3551
F0.000878125
sS'kitchen - coffee'
p3552
F0.0
sS'workzone corridor'
p3553
F0.177196
sg12
F1472147991.6285455
sS'lounge - tv'
p3554
F0.0
sS'kitchen - fridge'
p3555
F0.0
sg15
I738
sS'bathroom corridor'
p3556
F0.0
sS'kitchen'
p3557
F0.0
sa(dp3558
S'lounge'
p3559
F0.0
sS'entrance'
p3560
F0.0
sS'workzone T'
p3561
F0.629459
sS'workzone P'
p3562
F0.000494943
sS'lounge - sofas'
p3563
F0.0
sS'workzone Y'
p3564
F0.191971
sS'entrance corridor'
p3565
F0.0
sS'workzone G'
p3566
F0.000878125
sS'kitchen - coffee'
p3567
F0.0
sS'workzone corridor'
p3568
F0.177196
sg12
F1472147993.6210527
sS'lounge - tv'
p3569
F0.0
sS'kitchen - fridge'
p3570
F0.0
sg15
I738
sS'bathroom corridor'
p3571
F0.0
sS'kitchen'
p3572
F0.0
sa(dp3573
S'lounge'
p3574
F0.0
sS'entrance'
p3575
F0.0
sS'workzone T'
p3576
F0.629459
sS'workzone P'
p3577
F0.000494943
sS'lounge - sofas'
p3578
F0.0
sS'workzone Y'
p3579
F0.191971
sS'entrance corridor'
p3580
F0.0
sS'workzone G'
p3581
F0.000878125
sS'kitchen - coffee'
p3582
F0.0
sS'workzone corridor'
p3583
F0.177196
sg12
F1472147995.6227682
sS'lounge - tv'
p3584
F0.0
sS'kitchen - fridge'
p3585
F0.0
sg15
I738
sS'bathroom corridor'
p3586
F0.0
sS'kitchen'
p3587
F0.0
sa(dp3588
S'lounge'
p3589
F0.0
sS'entrance'
p3590
F0.0
sS'workzone T'
p3591
F0.629459
sS'workzone P'
p3592
F0.000494943
sS'lounge - sofas'
p3593
F0.0
sS'workzone Y'
p3594
F0.191971
sS'entrance corridor'
p3595
F0.0
sS'workzone G'
p3596
F0.000878125
sS'kitchen - coffee'
p3597
F0.0
sS'workzone corridor'
p3598
F0.177196
sg12
F1472147997.6532705
sS'lounge - tv'
p3599
F0.0
sS'kitchen - fridge'
p3600
F0.0
sg15
I738
sS'bathroom corridor'
p3601
F0.0
sS'kitchen'
p3602
F0.0
sa(dp3603
S'lounge'
p3604
F0.0
sS'entrance'
p3605
F0.0
sS'workzone T'
p3606
F0.629459
sS'workzone P'
p3607
F0.000494943
sS'lounge - sofas'
p3608
F0.0
sS'workzone Y'
p3609
F0.191971
sS'entrance corridor'
p3610
F0.0
sS'workzone G'
p3611
F0.000878125
sS'kitchen - coffee'
p3612
F0.0
sS'workzone corridor'
p3613
F0.177196
sg12
F1472147999.6245162
sS'lounge - tv'
p3614
F0.0
sS'kitchen - fridge'
p3615
F0.0
sg15
I738
sS'bathroom corridor'
p3616
F0.0
sS'kitchen'
p3617
F0.0
sa(dp3618
S'lounge'
p3619
F0.0
sS'entrance'
p3620
F0.0
sS'workzone T'
p3621
F0.629459
sS'workzone P'
p3622
F0.000494943
sS'lounge - sofas'
p3623
F0.0
sS'workzone Y'
p3624
F0.191971
sS'entrance corridor'
p3625
F0.0
sS'workzone G'
p3626
F0.000878125
sS'kitchen - coffee'
p3627
F0.0
sS'workzone corridor'
p3628
F0.177196
sg12
F1472148001.6262336
sS'lounge - tv'
p3629
F0.0
sS'kitchen - fridge'
p3630
F0.0
sg15
I738
sS'bathroom corridor'
p3631
F0.0
sS'kitchen'
p3632
F0.0
sa(dp3633
S'lounge'
p3634
F0.0
sS'entrance'
p3635
F0.0
sS'workzone T'
p3636
F0.629459
sS'workzone P'
p3637
F0.000494943
sS'lounge - sofas'
p3638
F0.0
sS'workzone Y'
p3639
F0.191971
sS'entrance corridor'
p3640
F0.0
sS'workzone G'
p3641
F0.000878125
sS'kitchen - coffee'
p3642
F0.0
sS'workzone corridor'
p3643
F0.177196
sg12
F1472148003.6225724
sS'lounge - tv'
p3644
F0.0
sS'kitchen - fridge'
p3645
F0.0
sg15
I738
sS'bathroom corridor'
p3646
F0.0
sS'kitchen'
p3647
F0.0
sa(dp3648
S'lounge'
p3649
F0.0
sS'entrance'
p3650
F0.0
sS'workzone T'
p3651
F0.629459
sS'workzone P'
p3652
F0.000494943
sS'lounge - sofas'
p3653
F0.0
sS'workzone Y'
p3654
F0.191971
sS'entrance corridor'
p3655
F0.0
sS'workzone G'
p3656
F0.000878125
sS'kitchen - coffee'
p3657
F0.0
sS'workzone corridor'
p3658
F0.177196
sg12
F1472148005.6248522
sS'lounge - tv'
p3659
F0.0
sS'kitchen - fridge'
p3660
F0.0
sg15
I738
sS'bathroom corridor'
p3661
F0.0
sS'kitchen'
p3662
F0.0
sa(dp3663
S'lounge'
p3664
F0.0
sS'entrance'
p3665
F0.0
sS'workzone T'
p3666
F0.629459
sS'workzone P'
p3667
F0.000494943
sS'lounge - sofas'
p3668
F0.0
sS'workzone Y'
p3669
F0.191971
sS'entrance corridor'
p3670
F0.0
sS'workzone G'
p3671
F0.000878125
sS'kitchen - coffee'
p3672
F0.0
sS'workzone corridor'
p3673
F0.177196
sg12
F1472148007.6361194
sS'lounge - tv'
p3674
F0.0
sS'kitchen - fridge'
p3675
F0.0
sg15
I738
sS'bathroom corridor'
p3676
F0.0
sS'kitchen'
p3677
F0.0
sa(dp3678
S'lounge'
p3679
F0.0
sS'entrance'
p3680
F0.0
sS'workzone T'
p3681
F0.629459
sS'workzone P'
p3682
F0.000494943
sS'lounge - sofas'
p3683
F0.0
sS'workzone Y'
p3684
F0.191971
sS'entrance corridor'
p3685
F0.0
sS'workzone G'
p3686
F0.000878125
sS'kitchen - coffee'
p3687
F0.0
sS'workzone corridor'
p3688
F0.177196
sg12
F1472148009.6173785
sS'lounge - tv'
p3689
F0.0
sS'kitchen - fridge'
p3690
F0.0
sg15
I738
sS'bathroom corridor'
p3691
F0.0
sS'kitchen'
p3692
F0.0
sa(dp3693
S'lounge'
p3694
F0.0
sS'entrance'
p3695
F0.0
sS'workzone T'
p3696
F0.629459
sS'workzone P'
p3697
F0.000494943
sS'lounge - sofas'
p3698
F0.0
sS'workzone Y'
p3699
F0.191971
sS'entrance corridor'
p3700
F0.0
sS'workzone G'
p3701
F0.000878125
sS'kitchen - coffee'
p3702
F0.0
sS'workzone corridor'
p3703
F0.177196
sg12
F1472148011.6185844
sS'lounge - tv'
p3704
F0.0
sS'kitchen - fridge'
p3705
F0.0
sg15
I738
sS'bathroom corridor'
p3706
F0.0
sS'kitchen'
p3707
F0.0
sa(dp3708
S'lounge'
p3709
F0.0
sS'entrance'
p3710
F0.0
sS'workzone T'
p3711
F0.629459
sS'workzone P'
p3712
F0.000494943
sS'lounge - sofas'
p3713
F0.0
sS'workzone Y'
p3714
F0.191971
sS'entrance corridor'
p3715
F0.0
sS'workzone G'
p3716
F0.000878125
sS'kitchen - coffee'
p3717
F0.0
sS'workzone corridor'
p3718
F0.177196
sg12
F1472148013.6208274
sS'lounge - tv'
p3719
F0.0
sS'kitchen - fridge'
p3720
F0.0
sg15
I738
sS'bathroom corridor'
p3721
F0.0
sS'kitchen'
p3722
F0.0
sa(dp3723
S'lounge'
p3724
F0.0
sS'entrance'
p3725
F0.0
sS'workzone T'
p3726
F0.629459
sS'workzone P'
p3727
F0.000494943
sS'lounge - sofas'
p3728
F0.0
sS'workzone Y'
p3729
F0.191971
sS'entrance corridor'
p3730
F0.0
sS'workzone G'
p3731
F0.000878125
sS'kitchen - coffee'
p3732
F0.0
sS'workzone corridor'
p3733
F0.177196
sg12
F1472148015.6244109
sS'lounge - tv'
p3734
F0.0
sS'kitchen - fridge'
p3735
F0.0
sg15
I738
sS'bathroom corridor'
p3736
F0.0
sS'kitchen'
p3737
F0.0
sa(dp3738
S'lounge'
p3739
F0.0
sS'entrance'
p3740
F0.0
sS'workzone T'
p3741
F0.629459
sS'workzone P'
p3742
F0.000494943
sS'lounge - sofas'
p3743
F0.0
sS'workzone Y'
p3744
F0.191971
sS'entrance corridor'
p3745
F0.0
sS'workzone G'
p3746
F0.000878125
sS'kitchen - coffee'
p3747
F0.0
sS'workzone corridor'
p3748
F0.177196
sg12
F1472148017.6346247
sS'lounge - tv'
p3749
F0.0
sS'kitchen - fridge'
p3750
F0.0
sg15
I738
sS'bathroom corridor'
p3751
F0.0
sS'kitchen'
p3752
F0.0
sa(dp3753
S'lounge'
p3754
F0.0
sS'entrance'
p3755
F0.0
sS'workzone T'
p3756
F0.629459
sS'workzone P'
p3757
F0.000494943
sS'lounge - sofas'
p3758
F0.0
sS'workzone Y'
p3759
F0.191971
sS'entrance corridor'
p3760
F0.0
sS'workzone G'
p3761
F0.000878125
sS'kitchen - coffee'
p3762
F0.0
sS'workzone corridor'
p3763
F0.177196
sg12
F1472148019.6261272
sS'lounge - tv'
p3764
F0.0
sS'kitchen - fridge'
p3765
F0.0
sg15
I738
sS'bathroom corridor'
p3766
F0.0
sS'kitchen'
p3767
F0.0
sa(dp3768
S'lounge'
p3769
F0.0
sS'entrance'
p3770
F0.0
sS'workzone T'
p3771
F0.629459
sS'workzone P'
p3772
F0.000494943
sS'lounge - sofas'
p3773
F0.0
sS'workzone Y'
p3774
F0.191971
sS'entrance corridor'
p3775
F0.0
sS'workzone G'
p3776
F0.000878125
sS'kitchen - coffee'
p3777
F0.0
sS'workzone corridor'
p3778
F0.177196
sg12
F1472148021.6174
sS'lounge - tv'
p3779
F0.0
sS'kitchen - fridge'
p3780
F0.0
sg15
I738
sS'bathroom corridor'
p3781
F0.0
sS'kitchen'
p3782
F0.0
sa(dp3783
S'lounge'
p3784
F0.0
sS'entrance'
p3785
F0.0
sS'workzone T'
p3786
F0.629459
sS'workzone P'
p3787
F0.000494943
sS'lounge - sofas'
p3788
F0.0
sS'workzone Y'
p3789
F0.191971
sS'entrance corridor'
p3790
F0.0
sS'workzone G'
p3791
F0.000878125
sS'kitchen - coffee'
p3792
F0.0
sS'workzone corridor'
p3793
F0.177196
sg12
F1472148023.6189008
sS'lounge - tv'
p3794
F0.0
sS'kitchen - fridge'
p3795
F0.0
sg15
I738
sS'bathroom corridor'
p3796
F0.0
sS'kitchen'
p3797
F0.0
sa(dp3798
S'lounge'
p3799
F0.0
sS'entrance'
p3800
F0.0
sS'workzone T'
p3801
F0.629459
sS'workzone P'
p3802
F0.000494943
sS'lounge - sofas'
p3803
F0.0
sS'workzone Y'
p3804
F0.191971
sS'entrance corridor'
p3805
F0.0
sS'workzone G'
p3806
F0.000878125
sS'kitchen - coffee'
p3807
F0.0
sS'workzone corridor'
p3808
F0.177196
sg12
F1472148025.6208286
sS'lounge - tv'
p3809
F0.0
sS'kitchen - fridge'
p3810
F0.0
sg15
I738
sS'bathroom corridor'
p3811
F0.0
sS'kitchen'
p3812
F0.0
sa(dp3813
S'lounge'
p3814
F0.0
sS'entrance'
p3815
F0.0
sS'workzone T'
p3816
F0.629459
sS'workzone P'
p3817
F0.000494943
sS'lounge - sofas'
p3818
F0.0
sS'workzone Y'
p3819
F0.191971
sS'entrance corridor'
p3820
F0.0
sS'workzone G'
p3821
F0.000878125
sS'kitchen - coffee'
p3822
F0.0
sS'workzone corridor'
p3823
F0.177196
sg12
F1472148027.6335976
sS'lounge - tv'
p3824
F0.0
sS'kitchen - fridge'
p3825
F0.0
sg15
I738
sS'bathroom corridor'
p3826
F0.0
sS'kitchen'
p3827
F0.0
sa(dp3828
S'lounge'
p3829
F0.0
sS'entrance'
p3830
F0.0
sS'workzone T'
p3831
F0.629459
sS'workzone P'
p3832
F0.000494943
sS'lounge - sofas'
p3833
F0.0
sS'workzone Y'
p3834
F0.191971
sS'entrance corridor'
p3835
F0.0
sS'workzone G'
p3836
F0.000878125
sS'kitchen - coffee'
p3837
F0.0
sS'workzone corridor'
p3838
F0.177196
sg12
F1472148029.624894
sS'lounge - tv'
p3839
F0.0
sS'kitchen - fridge'
p3840
F0.0
sg15
I738
sS'bathroom corridor'
p3841
F0.0
sS'kitchen'
p3842
F0.0
sa(dp3843
S'lounge'
p3844
F0.0
sS'entrance'
p3845
F0.0
sS'workzone T'
p3846
F0.629459
sS'workzone P'
p3847
F0.000494943
sS'lounge - sofas'
p3848
F0.0
sS'workzone Y'
p3849
F0.191971
sS'entrance corridor'
p3850
F0.0
sS'workzone G'
p3851
F0.000878125
sS'kitchen - coffee'
p3852
F0.0
sS'workzone corridor'
p3853
F0.177196
sg12
F1472148031.624133
sS'lounge - tv'
p3854
F0.0
sS'kitchen - fridge'
p3855
F0.0
sg15
I738
sS'bathroom corridor'
p3856
F0.0
sS'kitchen'
p3857
F0.0
sa(dp3858
S'lounge'
p3859
F0.0
sS'entrance'
p3860
F0.0
sS'workzone T'
p3861
F0.629459
sS'workzone P'
p3862
F0.000494943
sS'lounge - sofas'
p3863
F0.0
sS'workzone Y'
p3864
F0.191971
sS'entrance corridor'
p3865
F0.0
sS'workzone G'
p3866
F0.000878125
sS'kitchen - coffee'
p3867
F0.0
sS'workzone corridor'
p3868
F0.177196
sg12
F1472148033.6154914
sS'lounge - tv'
p3869
F0.0
sS'kitchen - fridge'
p3870
F0.0
sg15
I738
sS'bathroom corridor'
p3871
F0.0
sS'kitchen'
p3872
F0.0
sa(dp3873
S'lounge'
p3874
F0.0
sS'entrance'
p3875
F0.0
sS'workzone T'
p3876
F0.629459
sS'workzone P'
p3877
F0.000494943
sS'lounge - sofas'
p3878
F0.0
sS'workzone Y'
p3879
F0.191971
sS'entrance corridor'
p3880
F0.0
sS'workzone G'
p3881
F0.000878125
sS'kitchen - coffee'
p3882
F0.0
sS'workzone corridor'
p3883
F0.177196
sg12
F1472148035.6165628
sS'lounge - tv'
p3884
F0.0
sS'kitchen - fridge'
p3885
F0.0
sg15
I738
sS'bathroom corridor'
p3886
F0.0
sS'kitchen'
p3887
F0.0
sa(dp3888
S'lounge'
p3889
F0.0
sS'entrance'
p3890
F0.0
sS'workzone T'
p3891
F0.629459
sS'workzone P'
p3892
F0.000494943
sS'lounge - sofas'
p3893
F0.0
sS'workzone Y'
p3894
F0.191971
sS'entrance corridor'
p3895
F0.0
sS'workzone G'
p3896
F0.000878125
sS'kitchen - coffee'
p3897
F0.0
sS'workzone corridor'
p3898
F0.177196
sg12
F1472148037.6278453
sS'lounge - tv'
p3899
F0.0
sS'kitchen - fridge'
p3900
F0.0
sg15
I738
sS'bathroom corridor'
p3901
F0.0
sS'kitchen'
p3902
F0.0
sa(dp3903
S'lounge'
p3904
F0.0
sS'entrance'
p3905
F0.0
sS'workzone T'
p3906
F0.629459
sS'workzone P'
p3907
F0.000494943
sS'lounge - sofas'
p3908
F0.0
sS'workzone Y'
p3909
F0.191971
sS'entrance corridor'
p3910
F0.0
sS'workzone G'
p3911
F0.000878125
sS'kitchen - coffee'
p3912
F0.0
sS'workzone corridor'
p3913
F0.177196
sg12
F1472148039.620563
sS'lounge - tv'
p3914
F0.0
sS'kitchen - fridge'
p3915
F0.0
sg15
I738
sS'bathroom corridor'
p3916
F0.0
sS'kitchen'
p3917
F0.0
sa(dp3918
S'lounge'
p3919
F0.0
sS'entrance'
p3920
F0.0
sS'workzone T'
p3921
F0.629459
sS'workzone P'
p3922
F0.000494943
sS'lounge - sofas'
p3923
F0.0
sS'workzone Y'
p3924
F0.191971
sS'entrance corridor'
p3925
F0.0
sS'workzone G'
p3926
F0.000878125
sS'kitchen - coffee'
p3927
F0.0
sS'workzone corridor'
p3928
F0.177196
sg12
F1472148041.6216414
sS'lounge - tv'
p3929
F0.0
sS'kitchen - fridge'
p3930
F0.0
sg15
I738
sS'bathroom corridor'
p3931
F0.0
sS'kitchen'
p3932
F0.0
sa(dp3933
S'lounge'
p3934
F0.0
sS'entrance'
p3935
F0.0
sS'workzone T'
p3936
F0.629459
sS'workzone P'
p3937
F0.000494943
sS'lounge - sofas'
p3938
F0.0
sS'workzone Y'
p3939
F0.191971
sS'entrance corridor'
p3940
F0.0
sS'workzone G'
p3941
F0.000878125
sS'kitchen - coffee'
p3942
F0.0
sS'workzone corridor'
p3943
F0.177196
sg12
F1472148043.6166992
sS'lounge - tv'
p3944
F0.0
sS'kitchen - fridge'
p3945
F0.0
sg15
I738
sS'bathroom corridor'
p3946
F0.0
sS'kitchen'
p3947
F0.0
sa(dp3948
S'lounge'
p3949
F0.0
sS'entrance'
p3950
F0.0
sS'workzone T'
p3951
F0.629459
sS'workzone P'
p3952
F0.000494943
sS'lounge - sofas'
p3953
F0.0
sS'workzone Y'
p3954
F0.191971
sS'entrance corridor'
p3955
F0.0
sS'workzone G'
p3956
F0.000878125
sS'kitchen - coffee'
p3957
F0.0
sS'workzone corridor'
p3958
F0.177196
sg12
F1472148045.61892
sS'lounge - tv'
p3959
F0.0
sS'kitchen - fridge'
p3960
F0.0
sg15
I738
sS'bathroom corridor'
p3961
F0.0
sS'kitchen'
p3962
F0.0
sa(dp3963
S'lounge'
p3964
F0.0
sS'entrance'
p3965
F0.0
sS'workzone T'
p3966
F0.629459
sS'workzone P'
p3967
F0.000494943
sS'lounge - sofas'
p3968
F0.0
sS'workzone Y'
p3969
F0.191971
sS'entrance corridor'
p3970
F0.0
sS'workzone G'
p3971
F0.000878125
sS'kitchen - coffee'
p3972
F0.0
sS'workzone corridor'
p3973
F0.177196
sg12
F1472148047.630436
sS'lounge - tv'
p3974
F0.0
sS'kitchen - fridge'
p3975
F0.0
sg15
I738
sS'bathroom corridor'
p3976
F0.0
sS'kitchen'
p3977
F0.0
sa.